Component: ARM Compiler 5.06 update 5 (build 528) Tool: armlink [4d35e2]

==============================================================================

Section Cross References

    main.o(i.advertising_start) refers to ble_advertising.o(i.ble_advertising_start) for ble_advertising_start
    main.o(i.advertising_start) refers to app_error.o(i.app_error_handler_bare) for app_error_handler_bare
    main.o(i.application_timers_start) refers to app_timer.o(i.app_timer_start) for app_timer_start
    main.o(i.application_timers_start) refers to app_error.o(i.app_error_handler_bare) for app_error_handler_bare
    main.o(i.application_timers_start) refers to main.o(.constdata) for .constdata
    main.o(i.assert_nrf_callback) refers to app_error.o(i.app_error_handler) for app_error_handler
    main.o(i.battery_level_meas_timeout_handler) refers to sensorsim.o(i.sensorsim_measure) for sensorsim_measure
    main.o(i.battery_level_meas_timeout_handler) refers to ble_bas.o(i.ble_bas_battery_level_update) for ble_bas_battery_level_update
    main.o(i.battery_level_meas_timeout_handler) refers to app_error.o(i.app_error_handler_bare) for app_error_handler_bare
    main.o(i.battery_level_meas_timeout_handler) refers to main.o(.bss) for .bss
    main.o(i.battery_level_meas_timeout_handler) refers to main.o(.data) for .data
    main.o(i.ble_evt_dispatch) refers to ble_conn_state.o(i.ble_conn_state_on_ble_evt) for ble_conn_state_on_ble_evt
    main.o(i.ble_evt_dispatch) refers to peer_manager.o(i.pm_on_ble_evt) for pm_on_ble_evt
    main.o(i.ble_evt_dispatch) refers to ble_hrs.o(i.ble_hrs_on_ble_evt) for ble_hrs_on_ble_evt
    main.o(i.ble_evt_dispatch) refers to ble_bas.o(i.ble_bas_on_ble_evt) for ble_bas_on_ble_evt
    main.o(i.ble_evt_dispatch) refers to ble_conn_params.o(i.ble_conn_params_on_ble_evt) for ble_conn_params_on_ble_evt
    main.o(i.ble_evt_dispatch) refers to bsp_btn_ble.o(i.bsp_btn_ble_on_ble_evt) for bsp_btn_ble_on_ble_evt
    main.o(i.ble_evt_dispatch) refers to main.o(i.on_ble_evt) for on_ble_evt
    main.o(i.ble_evt_dispatch) refers to ble_advertising.o(i.ble_advertising_on_ble_evt) for ble_advertising_on_ble_evt
    main.o(i.ble_evt_dispatch) refers to nrf_ble_gatt.o(i.nrf_ble_gatt_on_ble_evt) for nrf_ble_gatt_on_ble_evt
    main.o(i.ble_evt_dispatch) refers to main.o(.bss) for .bss
    main.o(i.ble_stack_init) refers to softdevice_handler.o(i.softdevice_handler_init) for softdevice_handler_init
    main.o(i.ble_stack_init) refers to app_error.o(i.app_error_handler_bare) for app_error_handler_bare
    main.o(i.ble_stack_init) refers to softdevice_handler.o(i.softdevice_enable_get_default_config) for softdevice_enable_get_default_config
    main.o(i.ble_stack_init) refers to softdevice_handler.o(i.softdevice_enable) for softdevice_enable
    main.o(i.ble_stack_init) refers to softdevice_handler.o(i.softdevice_ble_evt_handler_set) for softdevice_ble_evt_handler_set
    main.o(i.ble_stack_init) refers to softdevice_handler.o(i.softdevice_sys_evt_handler_set) for softdevice_sys_evt_handler_set
    main.o(i.ble_stack_init) refers to main.o(.constdata) for .constdata
    main.o(i.ble_stack_init) refers to main.o(.bss) for .bss
    main.o(i.ble_stack_init) refers to main.o(i.ble_evt_dispatch) for ble_evt_dispatch
    main.o(i.ble_stack_init) refers to main.o(i.sys_evt_dispatch) for sys_evt_dispatch
    main.o(i.bsp_event_handler) refers to main.o(i.sleep_mode_enter) for sleep_mode_enter
    main.o(i.bsp_event_handler) refers to app_error.o(i.app_error_handler_bare) for app_error_handler_bare
    main.o(i.bsp_event_handler) refers to ble_advertising.o(i.ble_advertising_restart_without_whitelist) for ble_advertising_restart_without_whitelist
    main.o(i.bsp_event_handler) refers to main.o(.data) for .data
    main.o(i.conn_params_error_handler) refers to app_error.o(i.app_error_handler_bare) for app_error_handler_bare
    main.o(i.gap_params_init) refers to app_error.o(i.app_error_handler_bare) for app_error_handler_bare
    main.o(i.gatt_evt_handler) refers to ble_hrs.o(i.ble_hrs_on_gatt_evt) for ble_hrs_on_gatt_evt
    main.o(i.gatt_evt_handler) refers to main.o(.bss) for .bss
    main.o(i.gatt_init) refers to nrf_ble_gatt.o(i.nrf_ble_gatt_init) for nrf_ble_gatt_init
    main.o(i.gatt_init) refers to app_error.o(i.app_error_handler_bare) for app_error_handler_bare
    main.o(i.gatt_init) refers to main.o(i.gatt_evt_handler) for gatt_evt_handler
    main.o(i.gatt_init) refers to main.o(.bss) for .bss
    main.o(i.heart_rate_meas_timeout_handler) refers to sensorsim.o(i.sensorsim_measure) for sensorsim_measure
    main.o(i.heart_rate_meas_timeout_handler) refers to ble_hrs.o(i.ble_hrs_heart_rate_measurement_send) for ble_hrs_heart_rate_measurement_send
    main.o(i.heart_rate_meas_timeout_handler) refers to app_error.o(i.app_error_handler_bare) for app_error_handler_bare
    main.o(i.heart_rate_meas_timeout_handler) refers to uidiv.o(.text) for __aeabi_uidivmod
    main.o(i.heart_rate_meas_timeout_handler) refers to main.o(.bss) for .bss
    main.o(i.heart_rate_meas_timeout_handler) refers to main.o(.data) for .data
    main.o(i.in_pin_handler) refers to system_nrf51.o(.data) for SystemCoreClock
    main.o(i.main) refers to main.o(i.nrf_gpio_cfg_output) for nrf_gpio_cfg_output
    main.o(i.main) refers to main.o(i.timers_init) for timers_init
    main.o(i.main) refers to main.o(i.ble_stack_init) for ble_stack_init
    main.o(i.main) refers to main.o(i.peer_manager_init) for peer_manager_init
    main.o(i.main) refers to main.o(i.gap_params_init) for gap_params_init
    main.o(i.main) refers to memseta.o(.text) for __aeabi_memclr4
    main.o(i.main) refers to ble_advertising.o(i.ble_advertising_init) for ble_advertising_init
    main.o(i.main) refers to app_error.o(i.app_error_handler_bare) for app_error_handler_bare
    main.o(i.main) refers to main.o(i.gatt_init) for gatt_init
    main.o(i.main) refers to main.o(i.services_init) for services_init
    main.o(i.main) refers to main.o(i.sensor_simulator_init) for sensor_simulator_init
    main.o(i.main) refers to ble_conn_params.o(i.ble_conn_params_init) for ble_conn_params_init
    main.o(i.main) refers to main.o(i.application_timers_start) for application_timers_start
    main.o(i.main) refers to main.o(i.advertising_start) for advertising_start
    main.o(i.main) refers to nrf_drv_gpiote.o(i.nrf_drv_gpiote_is_init) for nrf_drv_gpiote_is_init
    main.o(i.main) refers to nrf_drv_gpiote.o(i.nrf_drv_gpiote_init) for nrf_drv_gpiote_init
    main.o(i.main) refers to nrf_drv_gpiote.o(i.nrf_drv_gpiote_in_init) for nrf_drv_gpiote_in_init
    main.o(i.main) refers to nrf_drv_gpiote.o(i.nrf_drv_gpiote_in_event_enable) for nrf_drv_gpiote_in_event_enable
    main.o(i.main) refers to main.o(.data) for .data
    main.o(i.main) refers to main.o(i.on_adv_evt) for on_adv_evt
    main.o(i.main) refers to main.o(.bss) for .bss
    main.o(i.main) refers to main.o(i.on_conn_params_evt) for on_conn_params_evt
    main.o(i.main) refers to main.o(i.conn_params_error_handler) for conn_params_error_handler
    main.o(i.main) refers to main.o(.constdata) for .constdata
    main.o(i.main) refers to main.o(i.in_pin_handler) for in_pin_handler
    main.o(i.on_adv_evt) refers to bsp.o(i.bsp_indication_set) for bsp_indication_set
    main.o(i.on_adv_evt) refers to app_error.o(i.app_error_handler_bare) for app_error_handler_bare
    main.o(i.on_adv_evt) refers to main.o(i.sleep_mode_enter) for sleep_mode_enter
    main.o(i.on_ble_evt) refers to app_error.o(i.app_error_handler_bare) for app_error_handler_bare
    main.o(i.on_ble_evt) refers to bsp.o(i.bsp_indication_set) for bsp_indication_set
    main.o(i.on_ble_evt) refers to memmovea.o(.text) for __aeabi_memcpy
    main.o(i.on_ble_evt) refers to main.o(.data) for .data
    main.o(i.on_conn_params_evt) refers to app_error.o(i.app_error_handler_bare) for app_error_handler_bare
    main.o(i.on_conn_params_evt) refers to main.o(.data) for .data
    main.o(i.peer_manager_init) refers to peer_manager.o(i.pm_init) for pm_init
    main.o(i.peer_manager_init) refers to app_error.o(i.app_error_handler_bare) for app_error_handler_bare
    main.o(i.peer_manager_init) refers to peer_manager.o(i.pm_peers_delete) for pm_peers_delete
    main.o(i.peer_manager_init) refers to peer_manager.o(i.pm_sec_params_set) for pm_sec_params_set
    main.o(i.peer_manager_init) refers to peer_manager.o(i.pm_register) for pm_register
    main.o(i.peer_manager_init) refers to fds.o(i.fds_register) for fds_register
    main.o(i.peer_manager_init) refers to main.o(i.pm_evt_handler) for pm_evt_handler
    main.o(i.peer_manager_init) refers to main.o(i.fds_evt_handler) for fds_evt_handler
    main.o(i.pm_evt_handler) refers to main.o(i.__ARM_common_switch8) for __ARM_common_switch8
    main.o(i.pm_evt_handler) refers to peer_manager.o(i.pm_conn_sec_config_reply) for pm_conn_sec_config_reply
    main.o(i.pm_evt_handler) refers to fds.o(i.fds_gc) for fds_gc
    main.o(i.pm_evt_handler) refers to app_error.o(i.app_error_handler_bare) for app_error_handler_bare
    main.o(i.pm_evt_handler) refers to main.o(i.advertising_start) for advertising_start
    main.o(i.pm_evt_handler) refers to peer_manager.o(i.pm_local_database_has_changed) for pm_local_database_has_changed
    main.o(i.rr_interval_timeout_handler) refers to sensorsim.o(i.sensorsim_measure) for sensorsim_measure
    main.o(i.rr_interval_timeout_handler) refers to ble_hrs.o(i.ble_hrs_rr_interval_add) for ble_hrs_rr_interval_add
    main.o(i.rr_interval_timeout_handler) refers to main.o(.data) for .data
    main.o(i.rr_interval_timeout_handler) refers to main.o(.bss) for .bss
    main.o(i.sensor_contact_detected_timeout_handler) refers to ble_hrs.o(i.ble_hrs_sensor_contact_detected_update) for ble_hrs_sensor_contact_detected_update
    main.o(i.sensor_contact_detected_timeout_handler) refers to main.o(.data) for .data
    main.o(i.sensor_contact_detected_timeout_handler) refers to main.o(.bss) for .bss
    main.o(i.sensor_simulator_init) refers to sensorsim.o(i.sensorsim_init) for sensorsim_init
    main.o(i.sensor_simulator_init) refers to main.o(.bss) for .bss
    main.o(i.sensor_simulator_init) refers to main.o(.data) for .data
    main.o(i.services_init) refers to memseta.o(.text) for __aeabi_memclr4
    main.o(i.services_init) refers to ble_hrs.o(i.ble_hrs_init) for ble_hrs_init
    main.o(i.services_init) refers to app_error.o(i.app_error_handler_bare) for app_error_handler_bare
    main.o(i.services_init) refers to ble_bas.o(i.ble_bas_init) for ble_bas_init
    main.o(i.services_init) refers to ble_srv_common.o(i.ble_srv_ascii_to_utf8) for ble_srv_ascii_to_utf8
    main.o(i.services_init) refers to ble_dis.o(i.ble_dis_init) for ble_dis_init
    main.o(i.services_init) refers to main.o(.bss) for .bss
    main.o(i.sleep_mode_enter) refers to bsp.o(i.bsp_indication_set) for bsp_indication_set
    main.o(i.sleep_mode_enter) refers to app_error.o(i.app_error_handler_bare) for app_error_handler_bare
    main.o(i.sleep_mode_enter) refers to bsp_btn_ble.o(i.bsp_btn_ble_sleep_mode_prepare) for bsp_btn_ble_sleep_mode_prepare
    main.o(i.sys_evt_dispatch) refers to fstorage.o(i.fs_sys_event_handler) for fs_sys_event_handler
    main.o(i.sys_evt_dispatch) refers to ble_advertising.o(i.ble_advertising_on_sys_evt) for ble_advertising_on_sys_evt
    main.o(i.timers_init) refers to app_timer.o(i.app_timer_init) for app_timer_init
    main.o(i.timers_init) refers to app_error.o(i.app_error_handler_bare) for app_error_handler_bare
    main.o(i.timers_init) refers to app_timer.o(i.app_timer_create) for app_timer_create
    main.o(i.timers_init) refers to main.o(.bss) for .bss
    main.o(i.timers_init) refers to main.o(i.battery_level_meas_timeout_handler) for battery_level_meas_timeout_handler
    main.o(i.timers_init) refers to main.o(.constdata) for .constdata
    main.o(i.timers_init) refers to main.o(i.heart_rate_meas_timeout_handler) for heart_rate_meas_timeout_handler
    main.o(i.timers_init) refers to main.o(i.rr_interval_timeout_handler) for rr_interval_timeout_handler
    main.o(i.timers_init) refers to main.o(i.sensor_contact_detected_timeout_handler) for sensor_contact_detected_timeout_handler
    main.o(.constdata) refers to main.o(.bss) for m_battery_timer_id_data
    main.o(.constdata) refers to main.o(.bss) for m_heart_rate_timer_id_data
    main.o(.constdata) refers to main.o(.bss) for m_rr_interval_timer_id_data
    main.o(.constdata) refers to main.o(.bss) for m_sensor_contact_timer_id_data
    boards.o(i.bsp_board_button_idx_to_pin) refers to boards.o(.constdata) for .constdata
    boards.o(i.bsp_board_button_state_get) refers to boards.o(.constdata) for .constdata
    boards.o(i.bsp_board_buttons_init) refers to boards.o(i.nrf_gpio_cfg) for nrf_gpio_cfg
    boards.o(i.bsp_board_buttons_init) refers to boards.o(.constdata) for .constdata
    boards.o(i.bsp_board_led_idx_to_pin) refers to boards.o(.constdata) for .constdata
    boards.o(i.bsp_board_led_invert) refers to boards.o(.constdata) for .constdata
    boards.o(i.bsp_board_led_off) refers to boards.o(i.nrf_gpio_pin_write) for nrf_gpio_pin_write
    boards.o(i.bsp_board_led_off) refers to boards.o(.constdata) for .constdata
    boards.o(i.bsp_board_led_on) refers to boards.o(i.nrf_gpio_pin_write) for nrf_gpio_pin_write
    boards.o(i.bsp_board_led_on) refers to boards.o(.constdata) for .constdata
    boards.o(i.bsp_board_led_state_get) refers to boards.o(.constdata) for .constdata
    boards.o(i.bsp_board_leds_init) refers to boards.o(i.nrf_gpio_cfg) for nrf_gpio_cfg
    boards.o(i.bsp_board_leds_init) refers to boards.o(i.bsp_board_leds_off) for bsp_board_leds_off
    boards.o(i.bsp_board_leds_init) refers to boards.o(.constdata) for .constdata
    boards.o(i.bsp_board_leds_off) refers to boards.o(i.bsp_board_led_off) for bsp_board_led_off
    boards.o(i.bsp_board_leds_on) refers to boards.o(i.bsp_board_led_on) for bsp_board_led_on
    boards.o(i.bsp_board_pin_to_button_idx) refers to boards.o(.constdata) for .constdata
    boards.o(i.bsp_board_pin_to_led_idx) refers to boards.o(.constdata) for .constdata
    bsp.o(i.alert_timer_handler) refers to boards.o(i.bsp_board_led_invert) for bsp_board_led_invert
    bsp.o(i.bsp_button_event_handler) refers to boards.o(i.bsp_board_pin_to_button_idx) for bsp_board_pin_to_button_idx
    bsp.o(i.bsp_button_event_handler) refers to app_timer.o(i.app_timer_start) for app_timer_start
    bsp.o(i.bsp_button_event_handler) refers to app_timer.o(i.app_timer_stop) for app_timer_stop
    bsp.o(i.bsp_button_event_handler) refers to bsp.o(.constdata) for .constdata
    bsp.o(i.bsp_button_event_handler) refers to bsp.o(.bss) for .bss
    bsp.o(i.bsp_button_event_handler) refers to bsp.o(.data) for .data
    bsp.o(i.bsp_button_is_pressed) refers to boards.o(i.bsp_board_button_state_get) for bsp_board_button_state_get
    bsp.o(i.bsp_buttons_disable) refers to app_button.o(i.app_button_disable) for app_button_disable
    bsp.o(i.bsp_buttons_enable) refers to app_button.o(i.app_button_enable) for app_button_enable
    bsp.o(i.bsp_event_to_button_action_assign) refers to bsp.o(.bss) for .bss
    bsp.o(i.bsp_indication_set) refers to bsp.o(i.bsp_led_indication) for bsp_led_indication
    bsp.o(i.bsp_indication_set) refers to bsp.o(.data) for .data
    bsp.o(i.bsp_init) refers to bsp.o(i.bsp_event_to_button_action_assign) for bsp_event_to_button_action_assign
    bsp.o(i.bsp_init) refers to app_button.o(i.app_button_init) for app_button_init
    bsp.o(i.bsp_init) refers to app_button.o(i.app_button_enable) for app_button_enable
    bsp.o(i.bsp_init) refers to app_timer.o(i.app_timer_create) for app_timer_create
    bsp.o(i.bsp_init) refers to boards.o(i.bsp_board_leds_init) for bsp_board_leds_init
    bsp.o(i.bsp_init) refers to bsp.o(.data) for .data
    bsp.o(i.bsp_init) refers to bsp.o(.constdata) for .constdata
    bsp.o(i.bsp_init) refers to bsp.o(i.button_timer_handler) for button_timer_handler
    bsp.o(i.bsp_init) refers to bsp.o(i.leds_timer_handler) for leds_timer_handler
    bsp.o(i.bsp_init) refers to bsp.o(i.alert_timer_handler) for alert_timer_handler
    bsp.o(i.bsp_led_indication) refers to boards.o(i.bsp_board_leds_off) for bsp_board_leds_off
    bsp.o(i.bsp_led_indication) refers to main.o(i.__ARM_common_switch8) for __ARM_common_switch8
    bsp.o(i.bsp_led_indication) refers to boards.o(i.bsp_board_led_state_get) for bsp_board_led_state_get
    bsp.o(i.bsp_led_indication) refers to boards.o(i.bsp_board_led_off) for bsp_board_led_off
    bsp.o(i.bsp_led_indication) refers to boards.o(i.bsp_board_led_on) for bsp_board_led_on
    bsp.o(i.bsp_led_indication) refers to uidiv.o(.text) for __aeabi_uidivmod
    bsp.o(i.bsp_led_indication) refers to app_timer.o(i.app_timer_start) for app_timer_start
    bsp.o(i.bsp_led_indication) refers to boards.o(i.bsp_board_led_invert) for bsp_board_led_invert
    bsp.o(i.bsp_led_indication) refers to app_timer.o(i.app_timer_stop) for app_timer_stop
    bsp.o(i.bsp_led_indication) refers to boards.o(i.bsp_board_leds_on) for bsp_board_leds_on
    bsp.o(i.bsp_led_indication) refers to bsp.o(.data) for .data
    bsp.o(i.bsp_led_indication) refers to bsp.o(.constdata) for .constdata
    bsp.o(i.bsp_wakeup_button_disable) refers to boards.o(i.bsp_board_button_idx_to_pin) for bsp_board_button_idx_to_pin
    bsp.o(i.bsp_wakeup_button_disable) refers to bsp.o(i.nrf_gpio_cfg_sense_set) for nrf_gpio_cfg_sense_set
    bsp.o(i.bsp_wakeup_button_enable) refers to boards.o(i.bsp_board_button_idx_to_pin) for bsp_board_button_idx_to_pin
    bsp.o(i.bsp_wakeup_button_enable) refers to bsp.o(i.nrf_gpio_cfg_sense_set) for nrf_gpio_cfg_sense_set
    bsp.o(i.button_timer_handler) refers to bsp.o(i.bsp_button_event_handler) for bsp_button_event_handler
    bsp.o(i.leds_timer_handler) refers to bsp.o(i.bsp_led_indication) for bsp_led_indication
    bsp.o(i.leds_timer_handler) refers to bsp.o(.data) for .data
    bsp.o(.constdata) refers to bsp.o(.bss) for m_leds_timer_id_data
    bsp.o(.constdata) refers to bsp.o(.bss) for m_alert_timer_id_data
    bsp.o(.constdata) refers to bsp.o(.bss) for m_button_timer_id_data
    bsp.o(.constdata) refers to bsp.o(i.bsp_button_event_handler) for bsp_button_event_handler
    bsp_btn_ble.o(i.advertising_buttons_configure) refers to bsp.o(i.bsp_event_to_button_action_assign) for bsp_event_to_button_action_assign
    bsp_btn_ble.o(i.bsp_btn_ble_init) refers to bsp.o(i.bsp_button_is_pressed) for bsp_button_is_pressed
    bsp_btn_ble.o(i.bsp_btn_ble_init) refers to bsp_btn_ble.o(i.advertising_buttons_configure) for advertising_buttons_configure
    bsp_btn_ble.o(i.bsp_btn_ble_init) refers to bsp_btn_ble.o(.data) for .data
    bsp_btn_ble.o(i.bsp_btn_ble_on_ble_evt) refers to bsp_btn_ble.o(i.advertising_buttons_configure) for advertising_buttons_configure
    bsp_btn_ble.o(i.bsp_btn_ble_on_ble_evt) refers to bsp.o(i.bsp_event_to_button_action_assign) for bsp_event_to_button_action_assign
    bsp_btn_ble.o(i.bsp_btn_ble_on_ble_evt) refers to bsp_btn_ble.o(.data) for .data
    bsp_btn_ble.o(i.bsp_btn_ble_sleep_mode_prepare) refers to bsp.o(i.bsp_wakeup_button_enable) for bsp_wakeup_button_enable
    bsp_nfc.o(i.bsp_nfc_btn_deinit) refers to bsp.o(i.bsp_event_to_button_action_assign) for bsp_event_to_button_action_assign
    bsp_nfc.o(i.bsp_nfc_btn_init) refers to bsp.o(i.bsp_event_to_button_action_assign) for bsp_event_to_button_action_assign
    ble_advdata.o(i.adv_data_encode) refers to ble_advdata.o(i.ble_device_addr_encode) for ble_device_addr_encode
    ble_advdata.o(i.adv_data_encode) refers to ble_advdata.o(i.uint16_encode) for uint16_encode
    ble_advdata.o(i.adv_data_encode) refers to ble_advdata.o(i.uuid_list_encode) for uuid_list_encode
    ble_advdata.o(i.adv_data_encode) refers to ble_advdata.o(i.conn_int_encode) for conn_int_encode
    ble_advdata.o(i.adv_data_encode) refers to ble_advdata.o(i.manuf_specific_data_encode) for manuf_specific_data_encode
    ble_advdata.o(i.adv_data_encode) refers to ble_advdata.o(i.service_data_encode) for service_data_encode
    ble_advdata.o(i.adv_data_encode) refers to ble_advdata.o(i.name_encode) for name_encode
    ble_advdata.o(i.ble_advdata_set) refers to ble_advdata.o(i.adv_data_encode) for adv_data_encode
    ble_advdata.o(i.ble_device_addr_encode) refers to memmovea.o(.text) for __aeabi_memcpy
    ble_advdata.o(i.conn_int_encode) refers to ble_advdata.o(i.uint16_encode) for uint16_encode
    ble_advdata.o(i.manuf_specific_data_encode) refers to ble_advdata.o(i.uint16_encode) for uint16_encode
    ble_advdata.o(i.manuf_specific_data_encode) refers to memmovea.o(.text) for __aeabi_memcpy
    ble_advdata.o(i.service_data_encode) refers to ble_advdata.o(i.uint16_encode) for uint16_encode
    ble_advdata.o(i.service_data_encode) refers to memmovea.o(.text) for __aeabi_memcpy
    ble_advdata.o(i.uuid_list_encode) refers to ble_advdata.o(i.uuid_list_sized_encode) for uuid_list_sized_encode
    ble_advertising.o(i.adv_mode_next_avail_get) refers to ble_advertising.o(.data) for .data
    ble_advertising.o(i.adv_mode_next_avail_get) refers to ble_advertising.o(.bss) for .bss
    ble_advertising.o(i.ble_advertising_init) refers to memmovea.o(.text) for __aeabi_memcpy4
    ble_advertising.o(i.ble_advertising_init) refers to memseta.o(.text) for __aeabi_memclr4
    ble_advertising.o(i.ble_advertising_init) refers to ble_advdata.o(i.ble_advdata_set) for ble_advdata_set
    ble_advertising.o(i.ble_advertising_init) refers to ble_advertising.o(.data) for .data
    ble_advertising.o(i.ble_advertising_init) refers to ble_advertising.o(.bss) for .bss
    ble_advertising.o(i.ble_advertising_on_ble_evt) refers to uidiv.o(.text) for __aeabi_uidivmod
    ble_advertising.o(i.ble_advertising_on_ble_evt) refers to ble_advertising.o(i.ble_advertising_start) for ble_advertising_start
    ble_advertising.o(i.ble_advertising_on_ble_evt) refers to ble_advertising.o(.data) for .data
    ble_advertising.o(i.ble_advertising_on_sys_evt) refers to ble_advertising.o(i.ble_advertising_start) for ble_advertising_start
    ble_advertising.o(i.ble_advertising_on_sys_evt) refers to ble_advertising.o(.data) for .data
    ble_advertising.o(i.ble_advertising_peer_addr_reply) refers to memmovea.o(.text) for __aeabi_memcpy
    ble_advertising.o(i.ble_advertising_peer_addr_reply) refers to ble_advertising.o(.data) for .data
    ble_advertising.o(i.ble_advertising_restart_without_whitelist) refers to ble_advdata.o(i.ble_advdata_set) for ble_advdata_set
    ble_advertising.o(i.ble_advertising_restart_without_whitelist) refers to ble_advertising.o(i.ble_advertising_start) for ble_advertising_start
    ble_advertising.o(i.ble_advertising_restart_without_whitelist) refers to ble_advertising.o(.data) for .data
    ble_advertising.o(i.ble_advertising_restart_without_whitelist) refers to ble_advertising.o(.bss) for .bss
    ble_advertising.o(i.ble_advertising_start) refers to fstorage.o(i.fs_queued_op_count_get) for fs_queued_op_count_get
    ble_advertising.o(i.ble_advertising_start) refers to memseta.o(.text) for __aeabi_memclr4
    ble_advertising.o(i.ble_advertising_start) refers to ble_advertising.o(i.adv_mode_next_avail_get) for adv_mode_next_avail_get
    ble_advertising.o(i.ble_advertising_start) refers to main.o(i.__ARM_common_switch8) for __ARM_common_switch8
    ble_advertising.o(i.ble_advertising_start) refers to ble_advertising.o(i.set_adv_mode_fast) for set_adv_mode_fast
    ble_advertising.o(i.ble_advertising_start) refers to ble_advertising.o(i.set_adv_mode_slow) for set_adv_mode_slow
    ble_advertising.o(i.ble_advertising_start) refers to ble_advertising.o(.data) for .data
    ble_advertising.o(i.ble_advertising_start) refers to ble_advertising.o(.bss) for .bss
    ble_advertising.o(i.ble_advertising_whitelist_reply) refers to memmovea.o(.text) for __aeabi_memcpy
    ble_advertising.o(i.ble_advertising_whitelist_reply) refers to ble_advertising.o(.data) for .data
    ble_advertising.o(i.set_adv_mode_fast) refers to ble_advertising.o(i.whitelist_has_entries) for whitelist_has_entries
    ble_advertising.o(i.set_adv_mode_fast) refers to ble_advdata.o(i.ble_advdata_set) for ble_advdata_set
    ble_advertising.o(i.set_adv_mode_fast) refers to ble_advertising.o(.bss) for .bss
    ble_advertising.o(i.set_adv_mode_fast) refers to ble_advertising.o(.data) for .data
    ble_advertising.o(i.set_adv_mode_slow) refers to ble_advertising.o(i.whitelist_has_entries) for whitelist_has_entries
    ble_advertising.o(i.set_adv_mode_slow) refers to ble_advdata.o(i.ble_advdata_set) for ble_advdata_set
    ble_advertising.o(i.set_adv_mode_slow) refers to ble_advertising.o(.bss) for .bss
    ble_advertising.o(i.set_adv_mode_slow) refers to ble_advertising.o(.data) for .data
    ble_advertising.o(i.whitelist_has_entries) refers to ble_advertising.o(.data) for .data
    ble_advertising.o(.data) refers to ble_advertising.o(.bss) for m_p_whitelist_addrs
    ble_advertising.o(.data) refers to ble_advertising.o(.bss) for m_p_whitelist_irks
    ble_conn_params.o(i.ble_conn_params_change_conn_params) refers to memmovea.o(.text) for __aeabi_memcpy
    ble_conn_params.o(i.ble_conn_params_change_conn_params) refers to ble_conn_params.o(i.is_conn_params_ok) for is_conn_params_ok
    ble_conn_params.o(i.ble_conn_params_change_conn_params) refers to ble_conn_params.o(.data) for .data
    ble_conn_params.o(i.ble_conn_params_change_conn_params) refers to ble_conn_params.o(.bss) for .bss
    ble_conn_params.o(i.ble_conn_params_init) refers to memmovea.o(.text) for __aeabi_memcpy4
    ble_conn_params.o(i.ble_conn_params_init) refers to app_timer.o(i.app_timer_create) for app_timer_create
    ble_conn_params.o(i.ble_conn_params_init) refers to ble_conn_params.o(.bss) for .bss
    ble_conn_params.o(i.ble_conn_params_init) refers to ble_conn_params.o(.data) for .data
    ble_conn_params.o(i.ble_conn_params_init) refers to ble_conn_params.o(i.update_timeout_handler) for update_timeout_handler
    ble_conn_params.o(i.ble_conn_params_init) refers to ble_conn_params.o(.constdata) for .constdata
    ble_conn_params.o(i.ble_conn_params_on_ble_evt) refers to ble_srv_common.o(i.ble_srv_is_notification_enabled) for ble_srv_is_notification_enabled
    ble_conn_params.o(i.ble_conn_params_on_ble_evt) refers to memmovea.o(.text) for __aeabi_memcpy
    ble_conn_params.o(i.ble_conn_params_on_ble_evt) refers to ble_conn_params.o(i.conn_params_negotiation) for conn_params_negotiation
    ble_conn_params.o(i.ble_conn_params_on_ble_evt) refers to app_timer.o(i.app_timer_stop) for app_timer_stop
    ble_conn_params.o(i.ble_conn_params_on_ble_evt) refers to ble_conn_params.o(.data) for .data
    ble_conn_params.o(i.ble_conn_params_on_ble_evt) refers to ble_conn_params.o(.bss) for .bss
    ble_conn_params.o(i.ble_conn_params_on_ble_evt) refers to ble_conn_params.o(.constdata) for .constdata
    ble_conn_params.o(i.ble_conn_params_stop) refers to app_timer.o(i.app_timer_stop) for app_timer_stop
    ble_conn_params.o(i.ble_conn_params_stop) refers to ble_conn_params.o(.constdata) for .constdata
    ble_conn_params.o(i.conn_params_negotiation) refers to ble_conn_params.o(i.is_conn_params_ok) for is_conn_params_ok
    ble_conn_params.o(i.conn_params_negotiation) refers to app_timer.o(i.app_timer_start) for app_timer_start
    ble_conn_params.o(i.conn_params_negotiation) refers to ble_conn_params.o(.data) for .data
    ble_conn_params.o(i.conn_params_negotiation) refers to ble_conn_params.o(.bss) for .bss
    ble_conn_params.o(i.conn_params_negotiation) refers to ble_conn_params.o(.constdata) for .constdata
    ble_conn_params.o(i.is_conn_params_ok) refers to ble_conn_params.o(.data) for .data
    ble_conn_params.o(i.update_timeout_handler) refers to ble_conn_params.o(.data) for .data
    ble_conn_params.o(i.update_timeout_handler) refers to ble_conn_params.o(.bss) for .bss
    ble_conn_params.o(.constdata) refers to ble_conn_params.o(.bss) for m_conn_params_timer_id_data
    ble_conn_state.o(i.bcs_internal_state_reset) refers to memseta.o(.text) for __aeabi_memclr4
    ble_conn_state.o(i.bcs_internal_state_reset) refers to ble_conn_state.o(.bss) for .bss
    ble_conn_state.o(i.ble_conn_state_central_handles) refers to sdk_mapped_flags.o(i.sdk_mapped_flags_key_list_get) for sdk_mapped_flags_key_list_get
    ble_conn_state.o(i.ble_conn_state_central_handles) refers to ble_conn_state.o(.bss) for .bss
    ble_conn_state.o(i.ble_conn_state_conn_handles) refers to sdk_mapped_flags.o(i.sdk_mapped_flags_key_list_get) for sdk_mapped_flags_key_list_get
    ble_conn_state.o(i.ble_conn_state_conn_handles) refers to ble_conn_state.o(.bss) for .bss
    ble_conn_state.o(i.ble_conn_state_encrypted) refers to sdk_mapped_flags.o(i.sdk_mapped_flags_get_by_key) for sdk_mapped_flags_get_by_key
    ble_conn_state.o(i.ble_conn_state_encrypted) refers to ble_conn_state.o(.bss) for .bss
    ble_conn_state.o(i.ble_conn_state_init) refers to ble_conn_state.o(i.bcs_internal_state_reset) for bcs_internal_state_reset
    ble_conn_state.o(i.ble_conn_state_mitm_protected) refers to sdk_mapped_flags.o(i.sdk_mapped_flags_get_by_key) for sdk_mapped_flags_get_by_key
    ble_conn_state.o(i.ble_conn_state_mitm_protected) refers to ble_conn_state.o(.bss) for .bss
    ble_conn_state.o(i.ble_conn_state_n_centrals) refers to sdk_mapped_flags.o(i.sdk_mapped_flags_n_flags_set) for sdk_mapped_flags_n_flags_set
    ble_conn_state.o(i.ble_conn_state_n_centrals) refers to ble_conn_state.o(.bss) for .bss
    ble_conn_state.o(i.ble_conn_state_n_connections) refers to sdk_mapped_flags.o(i.sdk_mapped_flags_n_flags_set) for sdk_mapped_flags_n_flags_set
    ble_conn_state.o(i.ble_conn_state_n_connections) refers to ble_conn_state.o(.bss) for .bss
    ble_conn_state.o(i.ble_conn_state_n_peripherals) refers to sdk_mapped_flags.o(i.sdk_mapped_flags_n_flags_set) for sdk_mapped_flags_n_flags_set
    ble_conn_state.o(i.ble_conn_state_n_peripherals) refers to ble_conn_state.o(.bss) for .bss
    ble_conn_state.o(i.ble_conn_state_on_ble_evt) refers to sdk_mapped_flags.o(i.sdk_mapped_flags_key_list_get) for sdk_mapped_flags_key_list_get
    ble_conn_state.o(i.ble_conn_state_on_ble_evt) refers to memmovea.o(.text) for __aeabi_memcpy4
    ble_conn_state.o(i.ble_conn_state_on_ble_evt) refers to sdk_mapped_flags.o(i.sdk_mapped_flags_bulk_update_by_key) for sdk_mapped_flags_bulk_update_by_key
    ble_conn_state.o(i.ble_conn_state_on_ble_evt) refers to sdk_mapped_flags.o(i.sdk_mapped_flags_first_key_index_get) for sdk_mapped_flags_first_key_index_get
    ble_conn_state.o(i.ble_conn_state_on_ble_evt) refers to sdk_mapped_flags.o(i.sdk_mapped_flags_update_by_key) for sdk_mapped_flags_update_by_key
    ble_conn_state.o(i.ble_conn_state_on_ble_evt) refers to app_error.o(i.app_error_handler_bare) for app_error_handler_bare
    ble_conn_state.o(i.ble_conn_state_on_ble_evt) refers to ble_conn_state.o(.bss) for .bss
    ble_conn_state.o(i.ble_conn_state_periph_handles) refers to sdk_mapped_flags.o(i.sdk_mapped_flags_key_list_get) for sdk_mapped_flags_key_list_get
    ble_conn_state.o(i.ble_conn_state_periph_handles) refers to ble_conn_state.o(.bss) for .bss
    ble_conn_state.o(i.ble_conn_state_role) refers to sdk_mapped_flags.o(i.sdk_mapped_flags_get_by_key) for sdk_mapped_flags_get_by_key
    ble_conn_state.o(i.ble_conn_state_role) refers to ble_conn_state.o(.bss) for .bss
    ble_conn_state.o(i.ble_conn_state_status) refers to sdk_mapped_flags.o(i.sdk_mapped_flags_get_by_key) for sdk_mapped_flags_get_by_key
    ble_conn_state.o(i.ble_conn_state_status) refers to ble_conn_state.o(.bss) for .bss
    ble_conn_state.o(i.ble_conn_state_user_flag_acquire) refers to ble_conn_state.o(i.user_flag_is_acquired) for user_flag_is_acquired
    ble_conn_state.o(i.ble_conn_state_user_flag_acquire) refers to ble_conn_state.o(.bss) for .bss
    ble_conn_state.o(i.ble_conn_state_user_flag_collection) refers to ble_conn_state.o(i.user_flag_is_acquired) for user_flag_is_acquired
    ble_conn_state.o(i.ble_conn_state_user_flag_collection) refers to ble_conn_state.o(.bss) for .bss
    ble_conn_state.o(i.ble_conn_state_user_flag_get) refers to ble_conn_state.o(i.user_flag_is_acquired) for user_flag_is_acquired
    ble_conn_state.o(i.ble_conn_state_user_flag_get) refers to sdk_mapped_flags.o(i.sdk_mapped_flags_get_by_key) for sdk_mapped_flags_get_by_key
    ble_conn_state.o(i.ble_conn_state_user_flag_get) refers to ble_conn_state.o(.bss) for .bss
    ble_conn_state.o(i.ble_conn_state_user_flag_set) refers to ble_conn_state.o(i.user_flag_is_acquired) for user_flag_is_acquired
    ble_conn_state.o(i.ble_conn_state_user_flag_set) refers to sdk_mapped_flags.o(i.sdk_mapped_flags_update_by_key) for sdk_mapped_flags_update_by_key
    ble_conn_state.o(i.ble_conn_state_user_flag_set) refers to ble_conn_state.o(.bss) for .bss
    ble_conn_state.o(i.ble_conn_state_valid) refers to sdk_mapped_flags.o(i.sdk_mapped_flags_get_by_key) for sdk_mapped_flags_get_by_key
    ble_conn_state.o(i.ble_conn_state_valid) refers to ble_conn_state.o(.bss) for .bss
    ble_conn_state.o(i.user_flag_is_acquired) refers to ble_conn_state.o(.bss) for .bss
    ble_srv_common.o(i.ble_srv_ascii_to_utf8) refers to strlen.o(.text) for strlen
    ble_srv_common.o(i.characteristic_add) refers to ble_srv_common.o(i.set_security_req) for set_security_req
    ble_srv_common.o(i.characteristic_add) refers to memseta.o(.text) for __aeabi_memclr4
    ble_srv_common.o(i.descriptor_add) refers to memseta.o(.text) for __aeabi_memclr4
    ble_srv_common.o(i.descriptor_add) refers to ble_srv_common.o(i.set_security_req) for set_security_req
    ble_srv_common.o(i.set_security_req) refers to main.o(i.__ARM_common_switch8) for __ARM_common_switch8
    gatt_cache_manager.o(i.evt_send) refers to gatt_cache_manager.o(.data) for .data
    gatt_cache_manager.o(i.gcm_ble_evt_handler) refers to gatt_cache_manager.o(i.local_db_apply_in_evt) for local_db_apply_in_evt
    gatt_cache_manager.o(i.gcm_ble_evt_handler) refers to id_manager.o(i.im_peer_id_get_by_conn_handle) for im_peer_id_get_by_conn_handle
    gatt_cache_manager.o(i.gcm_ble_evt_handler) refers to gatts_cache_manager.o(i.gscm_db_change_notification_done) for gscm_db_change_notification_done
    gatt_cache_manager.o(i.gcm_ble_evt_handler) refers to ble_conn_state.o(i.ble_conn_state_user_flag_set) for ble_conn_state_user_flag_set
    gatt_cache_manager.o(i.gcm_ble_evt_handler) refers to gatt_cache_manager.o(i.evt_send) for evt_send
    gatt_cache_manager.o(i.gcm_ble_evt_handler) refers to gatt_cache_manager.o(i.local_db_update_in_evt) for local_db_update_in_evt
    gatt_cache_manager.o(i.gcm_ble_evt_handler) refers to ble_conn_state.o(i.ble_conn_state_user_flag_collection) for ble_conn_state_user_flag_collection
    gatt_cache_manager.o(i.gcm_ble_evt_handler) refers to ble_conn_state.o(i.ble_conn_state_conn_handles) for ble_conn_state_conn_handles
    gatt_cache_manager.o(i.gcm_ble_evt_handler) refers to memmovea.o(.text) for __aeabi_memcpy4
    gatt_cache_manager.o(i.gcm_ble_evt_handler) refers to ble_conn_state.o(i.ble_conn_state_user_flag_get) for ble_conn_state_user_flag_get
    gatt_cache_manager.o(i.gcm_ble_evt_handler) refers to gatt_cache_manager.o(i.service_changed_pending_flags_check) for service_changed_pending_flags_check
    gatt_cache_manager.o(i.gcm_ble_evt_handler) refers to gatt_cache_manager.o(.data) for .data
    gatt_cache_manager.o(i.gcm_gscm_evt_handler) refers to id_manager.o(i.im_conn_handle_get) for im_conn_handle_get
    gatt_cache_manager.o(i.gcm_gscm_evt_handler) refers to ble_conn_state.o(i.ble_conn_state_user_flag_set) for ble_conn_state_user_flag_set
    gatt_cache_manager.o(i.gcm_gscm_evt_handler) refers to gatt_cache_manager.o(i.service_changed_pending_flags_check) for service_changed_pending_flags_check
    gatt_cache_manager.o(i.gcm_gscm_evt_handler) refers to gatt_cache_manager.o(i.evt_send) for evt_send
    gatt_cache_manager.o(i.gcm_gscm_evt_handler) refers to gatt_cache_manager.o(i.local_db_apply_in_evt) for local_db_apply_in_evt
    gatt_cache_manager.o(i.gcm_gscm_evt_handler) refers to gatt_cache_manager.o(.data) for .data
    gatt_cache_manager.o(i.gcm_im_evt_handler) refers to gatt_cache_manager.o(i.local_db_apply_in_evt) for local_db_apply_in_evt
    gatt_cache_manager.o(i.gcm_im_evt_handler) refers to gatts_cache_manager.o(i.gscm_service_changed_ind_needed) for gscm_service_changed_ind_needed
    gatt_cache_manager.o(i.gcm_im_evt_handler) refers to ble_conn_state.o(i.ble_conn_state_user_flag_set) for ble_conn_state_user_flag_set
    gatt_cache_manager.o(i.gcm_im_evt_handler) refers to gatt_cache_manager.o(.data) for .data
    gatt_cache_manager.o(i.gcm_init) refers to ble_conn_state.o(i.ble_conn_state_user_flag_acquire) for ble_conn_state_user_flag_acquire
    gatt_cache_manager.o(i.gcm_init) refers to gatt_cache_manager.o(.data) for .data
    gatt_cache_manager.o(i.gcm_local_database_has_changed) refers to gatts_cache_manager.o(i.gscm_local_database_has_changed) for gscm_local_database_has_changed
    gatt_cache_manager.o(i.gcm_local_database_has_changed) refers to ble_conn_state.o(i.ble_conn_state_conn_handles) for ble_conn_state_conn_handles
    gatt_cache_manager.o(i.gcm_local_database_has_changed) refers to id_manager.o(i.im_peer_id_get_by_conn_handle) for im_peer_id_get_by_conn_handle
    gatt_cache_manager.o(i.gcm_local_database_has_changed) refers to ble_conn_state.o(i.ble_conn_state_user_flag_set) for ble_conn_state_user_flag_set
    gatt_cache_manager.o(i.gcm_local_database_has_changed) refers to gatt_cache_manager.o(i.service_changed_pending_flags_check) for service_changed_pending_flags_check
    gatt_cache_manager.o(i.gcm_local_database_has_changed) refers to gatt_cache_manager.o(.data) for .data
    gatt_cache_manager.o(i.gcm_local_db_cache_set) refers to gatts_cache_manager.o(i.gscm_local_db_cache_set) for gscm_local_db_cache_set
    gatt_cache_manager.o(i.gcm_local_db_cache_update) refers to gatts_cache_manager.o(i.gscm_local_db_cache_update) for gscm_local_db_cache_update
    gatt_cache_manager.o(i.gcm_local_db_cache_update) refers to ble_conn_state.o(i.ble_conn_state_user_flag_set) for ble_conn_state_user_flag_set
    gatt_cache_manager.o(i.gcm_local_db_cache_update) refers to gatt_cache_manager.o(.data) for .data
    gatt_cache_manager.o(i.gcm_smd_evt_handler) refers to gatt_cache_manager.o(i.local_db_update_in_evt) for local_db_update_in_evt
    gatt_cache_manager.o(i.local_db_apply_in_evt) refers to gatts_cache_manager.o(i.gscm_local_db_cache_apply) for gscm_local_db_cache_apply
    gatt_cache_manager.o(i.local_db_apply_in_evt) refers to id_manager.o(i.im_peer_id_get_by_conn_handle) for im_peer_id_get_by_conn_handle
    gatt_cache_manager.o(i.local_db_apply_in_evt) refers to gatt_cache_manager.o(i.evt_send) for evt_send
    gatt_cache_manager.o(i.local_db_apply_in_evt) refers to ble_conn_state.o(i.ble_conn_state_user_flag_set) for ble_conn_state_user_flag_set
    gatt_cache_manager.o(i.local_db_apply_in_evt) refers to gatt_cache_manager.o(.data) for .data
    gatt_cache_manager.o(i.local_db_update_in_evt) refers to gatts_cache_manager.o(i.gscm_local_db_cache_update) for gscm_local_db_cache_update
    gatt_cache_manager.o(i.local_db_update_in_evt) refers to id_manager.o(i.im_peer_id_get_by_conn_handle) for im_peer_id_get_by_conn_handle
    gatt_cache_manager.o(i.local_db_update_in_evt) refers to gatt_cache_manager.o(i.evt_send) for evt_send
    gatt_cache_manager.o(i.local_db_update_in_evt) refers to ble_conn_state.o(i.ble_conn_state_user_flag_set) for ble_conn_state_user_flag_set
    gatt_cache_manager.o(i.local_db_update_in_evt) refers to gatt_cache_manager.o(.data) for .data
    gatt_cache_manager.o(i.service_changed_pending_flags_check) refers to ble_conn_state.o(i.ble_conn_state_user_flag_collection) for ble_conn_state_user_flag_collection
    gatt_cache_manager.o(i.service_changed_pending_flags_check) refers to ble_conn_state.o(i.ble_conn_state_conn_handles) for ble_conn_state_conn_handles
    gatt_cache_manager.o(i.service_changed_pending_flags_check) refers to memmovea.o(.text) for __aeabi_memcpy4
    gatt_cache_manager.o(i.service_changed_pending_flags_check) refers to ble_conn_state.o(i.ble_conn_state_user_flag_get) for ble_conn_state_user_flag_get
    gatt_cache_manager.o(i.service_changed_pending_flags_check) refers to gatt_cache_manager.o(i.service_changed_send_in_evt) for service_changed_send_in_evt
    gatt_cache_manager.o(i.service_changed_pending_flags_check) refers to gatt_cache_manager.o(.data) for .data
    gatt_cache_manager.o(i.service_changed_send_in_evt) refers to gatts_cache_manager.o(i.gscm_service_changed_ind_send) for gscm_service_changed_ind_send
    gatt_cache_manager.o(i.service_changed_send_in_evt) refers to gatt_cache_manager.o(i.local_db_apply_in_evt) for local_db_apply_in_evt
    gatt_cache_manager.o(i.service_changed_send_in_evt) refers to id_manager.o(i.im_peer_id_get_by_conn_handle) for im_peer_id_get_by_conn_handle
    gatt_cache_manager.o(i.service_changed_send_in_evt) refers to gatt_cache_manager.o(i.evt_send) for evt_send
    gatt_cache_manager.o(i.service_changed_send_in_evt) refers to ble_conn_state.o(i.ble_conn_state_user_flag_set) for ble_conn_state_user_flag_set
    gatt_cache_manager.o(i.service_changed_send_in_evt) refers to gatts_cache_manager.o(i.gscm_db_change_notification_done) for gscm_db_change_notification_done
    gatt_cache_manager.o(i.service_changed_send_in_evt) refers to gatt_cache_manager.o(.data) for .data
    gatt_cache_manager.o(.data) refers to peer_manager.o(i.pm_gcm_evt_handler) for pm_gcm_evt_handler
    gatts_cache_manager.o(i.gscm_db_change_notification_done) refers to peer_database.o(i.pdb_raw_store) for pdb_raw_store
    gatts_cache_manager.o(i.gscm_db_change_notification_done) refers to gatts_cache_manager.o(.constdata) for .constdata
    gatts_cache_manager.o(i.gscm_init) refers to gatts_cache_manager.o(.data) for .data
    gatts_cache_manager.o(i.gscm_local_database_has_changed) refers to peer_database.o(i.pdb_next_peer_id_get) for pdb_next_peer_id_get
    gatts_cache_manager.o(i.gscm_local_database_has_changed) refers to gatts_cache_manager.o(i.service_changed_pending_set) for service_changed_pending_set
    gatts_cache_manager.o(i.gscm_local_database_has_changed) refers to gatts_cache_manager.o(.data) for .data
    gatts_cache_manager.o(i.gscm_local_db_cache_apply) refers to id_manager.o(i.im_peer_id_get_by_conn_handle) for im_peer_id_get_by_conn_handle
    gatts_cache_manager.o(i.gscm_local_db_cache_apply) refers to peer_database.o(i.pdb_peer_data_ptr_get) for pdb_peer_data_ptr_get
    gatts_cache_manager.o(i.gscm_local_db_cache_set) refers to peer_database.o(i.pdb_raw_store) for pdb_raw_store
    gatts_cache_manager.o(i.gscm_local_db_cache_update) refers to id_manager.o(i.im_peer_id_get_by_conn_handle) for im_peer_id_get_by_conn_handle
    gatts_cache_manager.o(i.gscm_local_db_cache_update) refers to peer_database.o(i.pdb_write_buf_get) for pdb_write_buf_get
    gatts_cache_manager.o(i.gscm_local_db_cache_update) refers to peer_database.o(i.pdb_write_buf_store) for pdb_write_buf_store
    gatts_cache_manager.o(i.gscm_local_db_cache_update) refers to peer_database.o(i.pdb_write_buf_release) for pdb_write_buf_release
    gatts_cache_manager.o(i.gscm_pdb_evt_handler) refers to peer_database.o(i.pdb_peer_data_ptr_get) for pdb_peer_data_ptr_get
    gatts_cache_manager.o(i.gscm_pdb_evt_handler) refers to gatts_cache_manager.o(i.service_changed_pending_set) for service_changed_pending_set
    gatts_cache_manager.o(i.gscm_pdb_evt_handler) refers to gatts_cache_manager.o(.data) for .data
    gatts_cache_manager.o(i.gscm_service_changed_ind_needed) refers to id_manager.o(i.im_peer_id_get_by_conn_handle) for im_peer_id_get_by_conn_handle
    gatts_cache_manager.o(i.gscm_service_changed_ind_needed) refers to peer_database.o(i.pdb_peer_data_ptr_get) for pdb_peer_data_ptr_get
    gatts_cache_manager.o(i.gscm_service_changed_ind_send) refers to gatts_cache_manager.o(.data) for .data
    gatts_cache_manager.o(i.service_changed_pending_set) refers to peer_database.o(i.pdb_raw_store) for pdb_raw_store
    gatts_cache_manager.o(i.service_changed_pending_set) refers to peer_database.o(i.pdb_next_peer_id_get) for pdb_next_peer_id_get
    gatts_cache_manager.o(i.service_changed_pending_set) refers to gatts_cache_manager.o(.constdata) for .constdata
    gatts_cache_manager.o(i.service_changed_pending_set) refers to gatts_cache_manager.o(.data) for .data
    gatts_cache_manager.o(.constdata) refers to gatts_cache_manager.o(.constdata) for service_changed_pending
    gatts_cache_manager.o(.constdata) refers to gatts_cache_manager.o(.constdata) for service_changed_pending
    gatts_cache_manager.o(.data) refers to gatt_cache_manager.o(i.gcm_gscm_evt_handler) for gcm_gscm_evt_handler
    id_manager.o(i.addr_compare) refers to memcmp.o(.text) for memcmp
    id_manager.o(i.ah) refers to memseta.o(.text) for __aeabi_memclr4
    id_manager.o(i.evt_send) refers to id_manager.o(.constdata) for .constdata
    id_manager.o(i.get_connection_by_conn_handle) refers to ble_conn_state.o(i.ble_conn_state_user_flag_get) for ble_conn_state_user_flag_get
    id_manager.o(i.get_connection_by_conn_handle) refers to id_manager.o(.data) for .data
    id_manager.o(i.get_connection_by_conn_handle) refers to id_manager.o(.bss) for .bss
    id_manager.o(i.get_free_connection) refers to ble_conn_state.o(i.ble_conn_state_user_flag_get) for ble_conn_state_user_flag_get
    id_manager.o(i.get_free_connection) refers to id_manager.o(.bss) for .bss
    id_manager.o(i.get_free_connection) refers to id_manager.o(.data) for .data
    id_manager.o(i.im_address_resolve) refers to memmovea.o(.text) for __aeabi_memcpy
    id_manager.o(i.im_address_resolve) refers to id_manager.o(i.ah) for ah
    id_manager.o(i.im_address_resolve) refers to memcmp.o(.text) for memcmp
    id_manager.o(i.im_ble_addr_get) refers to id_manager.o(i.get_connection_by_conn_handle) for get_connection_by_conn_handle
    id_manager.o(i.im_ble_addr_get) refers to memmovea.o(.text) for __aeabi_memcpy
    id_manager.o(i.im_ble_addr_get) refers to id_manager.o(.bss) for .bss
    id_manager.o(i.im_ble_evt_handler) refers to memmovea.o(.text) for __aeabi_memcpy4
    id_manager.o(i.im_ble_evt_handler) refers to peer_data_storage.o(i.pds_peer_data_iterate_prepare) for pds_peer_data_iterate_prepare
    id_manager.o(i.im_ble_evt_handler) refers to id_manager.o(i.addr_compare) for addr_compare
    id_manager.o(i.im_ble_evt_handler) refers to peer_data_storage.o(i.pds_peer_data_iterate) for pds_peer_data_iterate
    id_manager.o(i.im_ble_evt_handler) refers to id_manager.o(i.im_address_resolve) for im_address_resolve
    id_manager.o(i.im_ble_evt_handler) refers to id_manager.o(i.new_connection) for new_connection
    id_manager.o(i.im_ble_evt_handler) refers to id_manager.o(i.im_new_peer_id) for im_new_peer_id
    id_manager.o(i.im_ble_evt_handler) refers to id_manager.o(i.evt_send) for evt_send
    id_manager.o(i.im_conn_handle_get) refers to id_manager.o(.bss) for .bss
    id_manager.o(i.im_id_addr_get) refers to memmovea.o(.text) for __aeabi_memcpy
    id_manager.o(i.im_id_addr_get) refers to id_manager.o(.data) for .data
    id_manager.o(i.im_id_addr_set) refers to id_manager.o(i.address_set_v2) for address_set_v2
    id_manager.o(i.im_id_addr_set) refers to memmovea.o(.text) for __aeabi_memcpy
    id_manager.o(i.im_id_addr_set) refers to id_manager.o(.data) for .data
    id_manager.o(i.im_init) refers to ble_conn_state.o(i.ble_conn_state_user_flag_acquire) for ble_conn_state_user_flag_acquire
    id_manager.o(i.im_init) refers to id_manager.o(.data) for .data
    id_manager.o(i.im_init) refers to id_manager.o(.bss) for .bss
    id_manager.o(i.im_is_duplicate_bonding_data) refers to id_manager.o(i.is_valid_irk) for is_valid_irk
    id_manager.o(i.im_is_duplicate_bonding_data) refers to memcmp.o(.text) for memcmp
    id_manager.o(i.im_is_duplicate_bonding_data) refers to id_manager.o(i.addr_compare) for addr_compare
    id_manager.o(i.im_master_ids_compare) refers to id_manager.o(i.im_master_id_is_valid) for im_master_id_is_valid
    id_manager.o(i.im_master_ids_compare) refers to memcmp.o(.text) for memcmp
    id_manager.o(i.im_new_peer_id) refers to id_manager.o(i.peer_id_set) for peer_id_set
    id_manager.o(i.im_pdb_evt_handler) refers to peer_database.o(i.pdb_peer_data_ptr_get) for pdb_peer_data_ptr_get
    id_manager.o(i.im_pdb_evt_handler) refers to peer_data_storage.o(i.pds_peer_data_iterate_prepare) for pds_peer_data_iterate_prepare
    id_manager.o(i.im_pdb_evt_handler) refers to id_manager.o(i.im_is_duplicate_bonding_data) for im_is_duplicate_bonding_data
    id_manager.o(i.im_pdb_evt_handler) refers to id_manager.o(i.im_conn_handle_get) for im_conn_handle_get
    id_manager.o(i.im_pdb_evt_handler) refers to id_manager.o(i.evt_send) for evt_send
    id_manager.o(i.im_pdb_evt_handler) refers to peer_data_storage.o(i.pds_peer_data_iterate) for pds_peer_data_iterate
    id_manager.o(i.im_peer_free) refers to id_manager.o(i.im_conn_handle_get) for im_conn_handle_get
    id_manager.o(i.im_peer_free) refers to peer_database.o(i.pdb_peer_free) for pdb_peer_free
    id_manager.o(i.im_peer_free) refers to id_manager.o(i.peer_id_set) for peer_id_set
    id_manager.o(i.im_peer_id_get_by_conn_handle) refers to id_manager.o(i.get_connection_by_conn_handle) for get_connection_by_conn_handle
    id_manager.o(i.im_peer_id_get_by_conn_handle) refers to id_manager.o(.bss) for .bss
    id_manager.o(i.im_peer_id_get_by_master_id) refers to peer_data_storage.o(i.pds_peer_data_iterate_prepare) for pds_peer_data_iterate_prepare
    id_manager.o(i.im_peer_id_get_by_master_id) refers to id_manager.o(i.im_master_ids_compare) for im_master_ids_compare
    id_manager.o(i.im_peer_id_get_by_master_id) refers to peer_data_storage.o(i.pds_peer_data_iterate) for pds_peer_data_iterate
    id_manager.o(i.im_privacy_set) refers to id_manager.o(i.address_set_v2) for address_set_v2
    id_manager.o(i.im_privacy_set) refers to id_manager.o(.data) for .data
    id_manager.o(i.im_whitelist_get) refers to id_manager.o(i.peers_id_keys_get) for peers_id_keys_get
    id_manager.o(i.im_whitelist_get) refers to id_manager.o(.data) for .data
    id_manager.o(i.im_whitelist_get) refers to id_manager.o(.bss) for .bss
    id_manager.o(i.im_whitelist_set) refers to memseta.o(.text) for __aeabi_memclr
    id_manager.o(i.im_whitelist_set) refers to memmovea.o(.text) for __aeabi_memcpy
    id_manager.o(i.im_whitelist_set) refers to id_manager.o(.bss) for .bss
    id_manager.o(i.im_whitelist_set) refers to id_manager.o(.data) for .data
    id_manager.o(i.new_connection) refers to ble_conn_state.o(i.ble_conn_state_user_flag_set) for ble_conn_state_user_flag_set
    id_manager.o(i.new_connection) refers to id_manager.o(i.get_connection_by_conn_handle) for get_connection_by_conn_handle
    id_manager.o(i.new_connection) refers to id_manager.o(i.get_free_connection) for get_free_connection
    id_manager.o(i.new_connection) refers to memmovea.o(.text) for __aeabi_memcpy
    id_manager.o(i.new_connection) refers to id_manager.o(.data) for .data
    id_manager.o(i.new_connection) refers to id_manager.o(.bss) for .bss
    id_manager.o(i.peer_id_set) refers to id_manager.o(i.get_connection_by_conn_handle) for get_connection_by_conn_handle
    id_manager.o(i.peer_id_set) refers to id_manager.o(.bss) for .bss
    id_manager.o(i.peers_id_keys_get) refers to memseta.o(.text) for __aeabi_memclr4
    id_manager.o(i.peers_id_keys_get) refers to peer_data_storage.o(i.pds_peer_data_read) for pds_peer_data_read
    id_manager.o(i.peers_id_keys_get) refers to memmovea.o(.text) for __aeabi_memcpy
    id_manager.o(.constdata) refers to peer_manager.o(i.pm_im_evt_handler) for pm_im_evt_handler
    id_manager.o(.constdata) refers to gatt_cache_manager.o(i.gcm_im_evt_handler) for gcm_im_evt_handler
    peer_data.o(i.peer_data_deserialize) refers to memmovea.o(.text) for __aeabi_memcpy
    peer_data_storage.o(i.fds_evt_handler) refers to main.o(i.__ARM_common_switch8) for __ARM_common_switch8
    peer_data_storage.o(i.fds_evt_handler) refers to peer_data_storage.o(i.file_id_within_pm_range) for file_id_within_pm_range
    peer_data_storage.o(i.fds_evt_handler) refers to peer_data_storage.o(i.record_key_within_pm_range) for record_key_within_pm_range
    peer_data_storage.o(i.fds_evt_handler) refers to peer_data_storage.o(i.file_id_to_peer_id) for file_id_to_peer_id
    peer_data_storage.o(i.fds_evt_handler) refers to peer_data_storage.o(i.record_key_to_peer_data_id) for record_key_to_peer_data_id
    peer_data_storage.o(i.fds_evt_handler) refers to peer_data_storage.o(i.peer_data_delete) for peer_data_delete
    peer_data_storage.o(i.fds_evt_handler) refers to peer_data_storage.o(i.pds_evt_send) for pds_evt_send
    peer_data_storage.o(i.fds_evt_handler) refers to peer_id.o(i.peer_id_free) for peer_id_free
    peer_data_storage.o(i.fds_evt_handler) refers to peer_data_storage.o(.data) for .data
    peer_data_storage.o(i.pds_evt_send) refers to peer_data_storage.o(.constdata) for .constdata
    peer_data_storage.o(i.pds_init) refers to fds.o(i.fds_register) for fds_register
    peer_data_storage.o(i.pds_init) refers to fds.o(i.fds_init) for fds_init
    peer_data_storage.o(i.pds_init) refers to peer_id.o(i.peer_id_init) for peer_id_init
    peer_data_storage.o(i.pds_init) refers to fds.o(i.fds_record_open) for fds_record_open
    peer_data_storage.o(i.pds_init) refers to fds.o(i.fds_record_close) for fds_record_close
    peer_data_storage.o(i.pds_init) refers to peer_id.o(i.peer_id_allocate) for peer_id_allocate
    peer_data_storage.o(i.pds_init) refers to fds.o(i.fds_record_find_by_key) for fds_record_find_by_key
    peer_data_storage.o(i.pds_init) refers to peer_data_storage.o(i.fds_evt_handler) for fds_evt_handler
    peer_data_storage.o(i.pds_init) refers to peer_data_storage.o(.data) for .data
    peer_data_storage.o(i.pds_next_deleted_peer_id_get) refers to peer_id.o(i.peer_id_get_next_deleted) for peer_id_get_next_deleted
    peer_data_storage.o(i.pds_next_peer_id_get) refers to peer_id.o(i.peer_id_get_next_used) for peer_id_get_next_used
    peer_data_storage.o(i.pds_peer_count_get) refers to peer_id.o(i.peer_id_n_ids) for peer_id_n_ids
    peer_data_storage.o(i.pds_peer_data_delete) refers to peer_data_storage.o(i.peer_data_id_is_valid) for peer_data_id_is_valid
    peer_data_storage.o(i.pds_peer_data_delete) refers to peer_data_storage.o(i.peer_data_find) for peer_data_find
    peer_data_storage.o(i.pds_peer_data_delete) refers to fds.o(i.fds_record_delete) for fds_record_delete
    peer_data_storage.o(i.pds_peer_data_iterate) refers to fds.o(i.fds_record_find_by_key) for fds_record_find_by_key
    peer_data_storage.o(i.pds_peer_data_iterate) refers to fds.o(i.fds_record_open) for fds_record_open
    peer_data_storage.o(i.pds_peer_data_iterate) refers to peer_data_storage.o(i.file_id_to_peer_id) for file_id_to_peer_id
    peer_data_storage.o(i.pds_peer_data_iterate) refers to fds.o(i.fds_record_close) for fds_record_close
    peer_data_storage.o(i.pds_peer_data_iterate) refers to peer_data_storage.o(.data) for .data
    peer_data_storage.o(i.pds_peer_data_iterate_prepare) refers to peer_data_storage.o(.data) for .data
    peer_data_storage.o(i.pds_peer_data_read) refers to peer_data_storage.o(i.peer_data_id_is_valid) for peer_data_id_is_valid
    peer_data_storage.o(i.pds_peer_data_read) refers to peer_data_storage.o(i.peer_data_find) for peer_data_find
    peer_data_storage.o(i.pds_peer_data_read) refers to fds.o(i.fds_record_open) for fds_record_open
    peer_data_storage.o(i.pds_peer_data_read) refers to memmovea.o(.text) for __aeabi_memcpy
    peer_data_storage.o(i.pds_peer_data_read) refers to fds.o(i.fds_record_close) for fds_record_close
    peer_data_storage.o(i.pds_peer_data_store) refers to peer_data_storage.o(i.peer_data_id_is_valid) for peer_data_id_is_valid
    peer_data_storage.o(i.pds_peer_data_store) refers to peer_data_storage.o(i.peer_id_to_file_id) for peer_id_to_file_id
    peer_data_storage.o(i.pds_peer_data_store) refers to peer_data_storage.o(i.peer_data_find) for peer_data_find
    peer_data_storage.o(i.pds_peer_data_store) refers to fds.o(i.fds_reserve_cancel) for fds_reserve_cancel
    peer_data_storage.o(i.pds_peer_data_store) refers to fds.o(i.fds_record_update) for fds_record_update
    peer_data_storage.o(i.pds_peer_data_store) refers to fds.o(i.fds_record_write_reserved) for fds_record_write_reserved
    peer_data_storage.o(i.pds_peer_data_store) refers to fds.o(i.fds_record_write) for fds_record_write
    peer_data_storage.o(i.pds_peer_data_store) refers to fds.o(i.fds_record_id_from_desc) for fds_record_id_from_desc
    peer_data_storage.o(i.pds_peer_id_allocate) refers to peer_id.o(i.peer_id_allocate) for peer_id_allocate
    peer_data_storage.o(i.pds_peer_id_free) refers to peer_id.o(i.peer_id_delete) for peer_id_delete
    peer_data_storage.o(i.pds_peer_id_free) refers to peer_data_storage.o(i.peer_data_delete) for peer_data_delete
    peer_data_storage.o(i.pds_peer_id_is_allocated) refers to peer_id.o(i.peer_id_is_allocated) for peer_id_is_allocated
    peer_data_storage.o(i.pds_space_reserve) refers to peer_data_storage.o(i.peer_data_id_is_valid) for peer_data_id_is_valid
    peer_data_storage.o(i.pds_space_reserve) refers to fds.o(i.fds_reserve) for fds_reserve
    peer_data_storage.o(i.pds_space_reserve_cancel) refers to fds.o(i.fds_reserve_cancel) for fds_reserve_cancel
    peer_data_storage.o(i.peer_data_delete) refers to peer_id.o(i.peer_id_free) for peer_id_free
    peer_data_storage.o(i.peer_data_delete) refers to peer_id.o(i.peer_id_get_next_deleted) for peer_id_get_next_deleted
    peer_data_storage.o(i.peer_data_delete) refers to peer_data_storage.o(i.peer_id_to_file_id) for peer_id_to_file_id
    peer_data_storage.o(i.peer_data_delete) refers to fds.o(i.fds_record_find_in_file) for fds_record_find_in_file
    peer_data_storage.o(i.peer_data_delete) refers to fds.o(i.fds_file_delete) for fds_file_delete
    peer_data_storage.o(i.peer_data_delete) refers to peer_data_storage.o(i.pds_evt_send) for pds_evt_send
    peer_data_storage.o(i.peer_data_delete) refers to peer_data_storage.o(.data) for .data
    peer_data_storage.o(i.peer_data_find) refers to peer_data_storage.o(i.peer_data_id_is_valid) for peer_data_id_is_valid
    peer_data_storage.o(i.peer_data_find) refers to fds.o(i.fds_record_find) for fds_record_find
    peer_data_storage.o(.constdata) refers to peer_database.o(i.pdb_pds_evt_handler) for pdb_pds_evt_handler
    peer_database.o(i.pdb_clear) refers to peer_data_storage.o(i.pds_peer_data_delete) for pds_peer_data_delete
    peer_database.o(i.pdb_evt_send) refers to peer_database.o(.constdata) for .constdata
    peer_database.o(i.pdb_init) refers to peer_database.o(i.write_buffer_record_invalidate) for write_buffer_record_invalidate
    peer_database.o(i.pdb_init) refers to pm_buffer.o(i.pm_buffer_init) for pm_buffer_init
    peer_database.o(i.pdb_init) refers to peer_database.o(.bss) for .bss
    peer_database.o(i.pdb_init) refers to peer_database.o(.data) for .data
    peer_database.o(i.pdb_n_peers) refers to peer_data_storage.o(i.pds_peer_count_get) for pds_peer_count_get
    peer_database.o(i.pdb_next_deleted_peer_id_get) refers to peer_data_storage.o(i.pds_next_deleted_peer_id_get) for pds_next_deleted_peer_id_get
    peer_database.o(i.pdb_next_peer_id_get) refers to peer_data_storage.o(i.pds_next_peer_id_get) for pds_next_peer_id_get
    peer_database.o(i.pdb_pds_evt_handler) refers to peer_database.o(i.write_buffer_record_find) for write_buffer_record_find
    peer_database.o(i.pdb_pds_evt_handler) refers to main.o(i.__ARM_common_switch8) for __ARM_common_switch8
    peer_database.o(i.pdb_pds_evt_handler) refers to peer_database.o(i.write_buffer_record_release) for write_buffer_record_release
    peer_database.o(i.pdb_pds_evt_handler) refers to peer_database.o(i.pdb_evt_send) for pdb_evt_send
    peer_database.o(i.pdb_pds_evt_handler) refers to peer_database.o(i.pdb_write_buf_store) for pdb_write_buf_store
    peer_database.o(i.pdb_pds_evt_handler) refers to peer_database.o(.data) for .data
    peer_database.o(i.pdb_pds_evt_handler) refers to peer_database.o(.bss) for .bss
    peer_database.o(i.pdb_peer_allocate) refers to peer_data_storage.o(i.pds_peer_id_allocate) for pds_peer_id_allocate
    peer_database.o(i.pdb_peer_data_load) refers to peer_data_storage.o(i.pds_peer_data_read) for pds_peer_data_read
    peer_database.o(i.pdb_peer_data_ptr_get) refers to peer_data_storage.o(i.pds_peer_data_read) for pds_peer_data_read
    peer_database.o(i.pdb_peer_free) refers to peer_database.o(i.pdb_write_buf_release) for pdb_write_buf_release
    peer_database.o(i.pdb_peer_free) refers to peer_database.o(i.write_buffer_record_find_next) for write_buffer_record_find_next
    peer_database.o(i.pdb_peer_free) refers to peer_data_storage.o(i.pds_peer_id_free) for pds_peer_id_free
    peer_database.o(i.pdb_raw_store) refers to peer_data_storage.o(i.pds_peer_data_store) for pds_peer_data_store
    peer_database.o(i.pdb_write_buf_get) refers to peer_data_storage.o(i.pds_peer_id_is_allocated) for pds_peer_id_is_allocated
    peer_database.o(i.pdb_write_buf_get) refers to peer_database.o(i.write_buffer_record_find) for write_buffer_record_find
    peer_database.o(i.pdb_write_buf_get) refers to pm_buffer.o(i.pm_buffer_release) for pm_buffer_release
    peer_database.o(i.pdb_write_buf_get) refers to peer_database.o(i.write_buffer_record_invalidate) for write_buffer_record_invalidate
    peer_database.o(i.pdb_write_buf_get) refers to pm_buffer.o(i.pm_buffer_block_acquire) for pm_buffer_block_acquire
    peer_database.o(i.pdb_write_buf_get) refers to pm_buffer.o(i.pm_buffer_ptr_get) for pm_buffer_ptr_get
    peer_database.o(i.pdb_write_buf_get) refers to peer_database.o(i.peer_data_point_to_buffer) for peer_data_point_to_buffer
    peer_database.o(i.pdb_write_buf_get) refers to peer_database.o(.bss) for .bss
    peer_database.o(i.pdb_write_buf_release) refers to peer_database.o(i.write_buffer_record_find) for write_buffer_record_find
    peer_database.o(i.pdb_write_buf_release) refers to peer_data_storage.o(i.pds_space_reserve_cancel) for pds_space_reserve_cancel
    peer_database.o(i.pdb_write_buf_release) refers to peer_database.o(i.write_buffer_record_release) for write_buffer_record_release
    peer_database.o(i.pdb_write_buf_store) refers to peer_database.o(i.write_buffer_record_find) for write_buffer_record_find
    peer_database.o(i.pdb_write_buf_store) refers to pm_buffer.o(i.pm_buffer_ptr_get) for pm_buffer_ptr_get
    peer_database.o(i.pdb_write_buf_store) refers to peer_database.o(i.peer_data_const_point_to_buffer) for peer_data_const_point_to_buffer
    peer_database.o(i.pdb_write_buf_store) refers to peer_database.o(i.write_buf_length_words_set) for write_buf_length_words_set
    peer_database.o(i.pdb_write_buf_store) refers to peer_data_storage.o(i.pds_peer_data_store) for pds_peer_data_store
    peer_database.o(i.pdb_write_buf_store) refers to peer_database.o(.bss) for .bss
    peer_database.o(i.pdb_write_buf_store) refers to peer_database.o(.data) for .data
    peer_database.o(i.pdb_write_buf_store_prepare) refers to peer_database.o(i.write_buffer_record_find) for write_buffer_record_find
    peer_database.o(i.pdb_write_buf_store_prepare) refers to pm_buffer.o(i.pm_buffer_ptr_get) for pm_buffer_ptr_get
    peer_database.o(i.pdb_write_buf_store_prepare) refers to peer_database.o(i.peer_data_const_point_to_buffer) for peer_data_const_point_to_buffer
    peer_database.o(i.pdb_write_buf_store_prepare) refers to peer_database.o(i.write_buf_length_words_set) for write_buf_length_words_set
    peer_database.o(i.pdb_write_buf_store_prepare) refers to peer_data_storage.o(i.pds_space_reserve) for pds_space_reserve
    peer_database.o(i.pdb_write_buf_store_prepare) refers to peer_database.o(.bss) for .bss
    peer_database.o(i.peer_data_const_point_to_buffer) refers to peer_database.o(i.peer_data_point_to_buffer) for peer_data_point_to_buffer
    peer_database.o(i.write_buffer_record_find) refers to peer_database.o(i.write_buffer_record_find_next) for write_buffer_record_find_next
    peer_database.o(i.write_buffer_record_find_next) refers to peer_database.o(.bss) for .bss
    peer_database.o(i.write_buffer_record_release) refers to pm_buffer.o(i.pm_buffer_release) for pm_buffer_release
    peer_database.o(i.write_buffer_record_release) refers to peer_database.o(i.write_buffer_record_invalidate) for write_buffer_record_invalidate
    peer_database.o(i.write_buffer_record_release) refers to peer_database.o(.bss) for .bss
    peer_database.o(.constdata) refers to peer_manager.o(i.pm_pdb_evt_handler) for pm_pdb_evt_handler
    peer_database.o(.constdata) refers to id_manager.o(i.im_pdb_evt_handler) for im_pdb_evt_handler
    peer_database.o(.constdata) refers to security_manager.o(i.sm_pdb_evt_handler) for sm_pdb_evt_handler
    peer_database.o(.constdata) refers to security_dispatcher.o(i.smd_pdb_evt_handler) for smd_pdb_evt_handler
    peer_database.o(.constdata) refers to gatts_cache_manager.o(i.gscm_pdb_evt_handler) for gscm_pdb_evt_handler
    peer_id.o(i.claim) refers to pm_mutex.o(i.pm_mutex_lock_first_available) for pm_mutex_lock_first_available
    peer_id.o(i.claim) refers to pm_mutex.o(i.pm_mutex_lock) for pm_mutex_lock
    peer_id.o(i.next_id_get) refers to pm_mutex.o(i.pm_mutex_lock_status_get) for pm_mutex_lock_status_get
    peer_id.o(i.peer_id_allocate) refers to peer_id.o(i.claim) for claim
    peer_id.o(i.peer_id_allocate) refers to peer_id.o(.bss) for .bss
    peer_id.o(i.peer_id_delete) refers to peer_id.o(i.claim) for claim
    peer_id.o(i.peer_id_delete) refers to peer_id.o(.bss) for .bss
    peer_id.o(i.peer_id_free) refers to peer_id.o(i.release) for release
    peer_id.o(i.peer_id_free) refers to peer_id.o(.bss) for .bss
    peer_id.o(i.peer_id_get_next_deleted) refers to peer_id.o(i.next_id_get) for next_id_get
    peer_id.o(i.peer_id_get_next_deleted) refers to peer_id.o(.bss) for .bss
    peer_id.o(i.peer_id_get_next_used) refers to peer_id.o(i.next_id_get) for next_id_get
    peer_id.o(i.peer_id_get_next_used) refers to peer_id.o(i.peer_id_is_deleted) for peer_id_is_deleted
    peer_id.o(i.peer_id_get_next_used) refers to peer_id.o(.bss) for .bss
    peer_id.o(i.peer_id_init) refers to memseta.o(.text) for __aeabi_memclr
    peer_id.o(i.peer_id_init) refers to pm_mutex.o(i.pm_mutex_init) for pm_mutex_init
    peer_id.o(i.peer_id_init) refers to peer_id.o(.bss) for .bss
    peer_id.o(i.peer_id_is_allocated) refers to pm_mutex.o(i.pm_mutex_lock_status_get) for pm_mutex_lock_status_get
    peer_id.o(i.peer_id_is_allocated) refers to peer_id.o(.bss) for .bss
    peer_id.o(i.peer_id_is_deleted) refers to pm_mutex.o(i.pm_mutex_lock_status_get) for pm_mutex_lock_status_get
    peer_id.o(i.peer_id_is_deleted) refers to peer_id.o(.bss) for .bss
    peer_id.o(i.peer_id_n_ids) refers to pm_mutex.o(i.pm_mutex_lock_status_get) for pm_mutex_lock_status_get
    peer_id.o(i.peer_id_n_ids) refers to peer_id.o(.bss) for .bss
    peer_id.o(i.release) refers to pm_mutex.o(i.pm_mutex_unlock) for pm_mutex_unlock
    peer_manager.o(i.evt_send) refers to peer_manager.o(.bss) for .bss
    peer_manager.o(i.evt_send) refers to peer_manager.o(.data) for .data
    peer_manager.o(i.pm_conn_handle_get) refers to id_manager.o(i.im_conn_handle_get) for im_conn_handle_get
    peer_manager.o(i.pm_conn_handle_get) refers to peer_manager.o(.data) for .data
    peer_manager.o(i.pm_conn_sec_config_reply) refers to security_manager.o(i.sm_conn_sec_config_reply) for sm_conn_sec_config_reply
    peer_manager.o(i.pm_conn_sec_status_get) refers to ble_conn_state.o(i.ble_conn_state_status) for ble_conn_state_status
    peer_manager.o(i.pm_conn_sec_status_get) refers to ble_conn_state.o(i.ble_conn_state_user_flag_get) for ble_conn_state_user_flag_get
    peer_manager.o(i.pm_conn_sec_status_get) refers to ble_conn_state.o(i.ble_conn_state_encrypted) for ble_conn_state_encrypted
    peer_manager.o(i.pm_conn_sec_status_get) refers to ble_conn_state.o(i.ble_conn_state_mitm_protected) for ble_conn_state_mitm_protected
    peer_manager.o(i.pm_conn_sec_status_get) refers to peer_manager.o(.data) for .data
    peer_manager.o(i.pm_conn_secure) refers to security_manager.o(i.sm_link_secure) for sm_link_secure
    peer_manager.o(i.pm_conn_secure) refers to peer_manager.o(.data) for .data
    peer_manager.o(i.pm_device_identities_list_set) refers to id_manager.o(i.im_device_identities_list_set) for im_device_identities_list_set
    peer_manager.o(i.pm_device_identities_list_set) refers to peer_manager.o(.data) for .data
    peer_manager.o(i.pm_gcm_evt_handler) refers to memseta.o(.text) for __aeabi_memclr4
    peer_manager.o(i.pm_gcm_evt_handler) refers to id_manager.o(i.im_conn_handle_get) for im_conn_handle_get
    peer_manager.o(i.pm_gcm_evt_handler) refers to main.o(i.__ARM_common_switch8) for __ARM_common_switch8
    peer_manager.o(i.pm_gcm_evt_handler) refers to peer_manager.o(i.evt_send) for evt_send
    peer_manager.o(i.pm_id_addr_get) refers to id_manager.o(i.im_id_addr_get) for im_id_addr_get
    peer_manager.o(i.pm_id_addr_get) refers to peer_manager.o(.data) for .data
    peer_manager.o(i.pm_id_addr_set) refers to id_manager.o(i.im_id_addr_set) for im_id_addr_set
    peer_manager.o(i.pm_id_addr_set) refers to peer_manager.o(.data) for .data
    peer_manager.o(i.pm_im_evt_handler) refers to ble_conn_state.o(i.ble_conn_state_user_flag_set) for ble_conn_state_user_flag_set
    peer_manager.o(i.pm_im_evt_handler) refers to memseta.o(.text) for __aeabi_memclr4
    peer_manager.o(i.pm_im_evt_handler) refers to id_manager.o(i.im_peer_id_get_by_conn_handle) for im_peer_id_get_by_conn_handle
    peer_manager.o(i.pm_im_evt_handler) refers to peer_manager.o(i.evt_send) for evt_send
    peer_manager.o(i.pm_im_evt_handler) refers to peer_manager.o(i.pm_peer_delete) for pm_peer_delete
    peer_manager.o(i.pm_im_evt_handler) refers to peer_manager.o(.data) for .data
    peer_manager.o(i.pm_init) refers to peer_data_storage.o(i.pds_init) for pds_init
    peer_manager.o(i.pm_init) refers to peer_database.o(i.pdb_init) for pdb_init
    peer_manager.o(i.pm_init) refers to security_manager.o(i.sm_init) for sm_init
    peer_manager.o(i.pm_init) refers to security_dispatcher.o(i.smd_init) for smd_init
    peer_manager.o(i.pm_init) refers to gatt_cache_manager.o(i.gcm_init) for gcm_init
    peer_manager.o(i.pm_init) refers to gatts_cache_manager.o(i.gscm_init) for gscm_init
    peer_manager.o(i.pm_init) refers to id_manager.o(i.im_init) for im_init
    peer_manager.o(i.pm_init) refers to ble_conn_state.o(i.ble_conn_state_user_flag_acquire) for ble_conn_state_user_flag_acquire
    peer_manager.o(i.pm_init) refers to peer_manager.o(.data) for .data
    peer_manager.o(i.pm_lesc_public_key_set) refers to security_manager.o(i.sm_lesc_public_key_set) for sm_lesc_public_key_set
    peer_manager.o(i.pm_lesc_public_key_set) refers to peer_manager.o(.data) for .data
    peer_manager.o(i.pm_local_database_has_changed) refers to gatt_cache_manager.o(i.gcm_local_database_has_changed) for gcm_local_database_has_changed
    peer_manager.o(i.pm_local_database_has_changed) refers to peer_manager.o(.data) for .data
    peer_manager.o(i.pm_next_peer_id_get) refers to peer_database.o(i.pdb_next_peer_id_get) for pdb_next_peer_id_get
    peer_manager.o(i.pm_next_peer_id_get) refers to peer_manager.o(.data) for .data
    peer_manager.o(i.pm_on_ble_evt) refers to id_manager.o(i.im_ble_evt_handler) for im_ble_evt_handler
    peer_manager.o(i.pm_on_ble_evt) refers to security_manager.o(i.sm_ble_evt_handler) for sm_ble_evt_handler
    peer_manager.o(i.pm_on_ble_evt) refers to gatt_cache_manager.o(i.gcm_ble_evt_handler) for gcm_ble_evt_handler
    peer_manager.o(i.pm_on_ble_evt) refers to peer_manager.o(.data) for .data
    peer_manager.o(i.pm_pdb_evt_handler) refers to memseta.o(.text) for __aeabi_memclr4
    peer_manager.o(i.pm_pdb_evt_handler) refers to id_manager.o(i.im_conn_handle_get) for im_conn_handle_get
    peer_manager.o(i.pm_pdb_evt_handler) refers to main.o(i.__ARM_common_switch8) for __ARM_common_switch8
    peer_manager.o(i.pm_pdb_evt_handler) refers to peer_database.o(i.pdb_next_peer_id_get) for pdb_next_peer_id_get
    peer_manager.o(i.pm_pdb_evt_handler) refers to peer_database.o(i.pdb_next_deleted_peer_id_get) for pdb_next_deleted_peer_id_get
    peer_manager.o(i.pm_pdb_evt_handler) refers to peer_manager.o(i.evt_send) for evt_send
    peer_manager.o(i.pm_pdb_evt_handler) refers to peer_manager.o(.data) for .data
    peer_manager.o(i.pm_peer_count) refers to peer_database.o(i.pdb_n_peers) for pdb_n_peers
    peer_manager.o(i.pm_peer_count) refers to peer_manager.o(.data) for .data
    peer_manager.o(i.pm_peer_data_app_data_load) refers to peer_manager.o(i.pm_peer_data_load) for pm_peer_data_load
    peer_manager.o(i.pm_peer_data_app_data_store) refers to peer_manager.o(i.pm_peer_data_store) for pm_peer_data_store
    peer_manager.o(i.pm_peer_data_bonding_load) refers to peer_manager.o(i.pm_peer_data_load) for pm_peer_data_load
    peer_manager.o(i.pm_peer_data_bonding_store) refers to peer_manager.o(i.pm_peer_data_store) for pm_peer_data_store
    peer_manager.o(i.pm_peer_data_delete) refers to peer_database.o(i.pdb_clear) for pdb_clear
    peer_manager.o(i.pm_peer_data_delete) refers to peer_manager.o(.data) for .data
    peer_manager.o(i.pm_peer_data_load) refers to peer_database.o(i.pdb_peer_data_load) for pdb_peer_data_load
    peer_manager.o(i.pm_peer_data_load) refers to peer_manager.o(.data) for .data
    peer_manager.o(i.pm_peer_data_remote_db_load) refers to peer_manager.o(i.pm_peer_data_load) for pm_peer_data_load
    peer_manager.o(i.pm_peer_data_remote_db_store) refers to peer_manager.o(i.pm_peer_data_store) for pm_peer_data_store
    peer_manager.o(i.pm_peer_data_store) refers to peer_database.o(i.pdb_raw_store) for pdb_raw_store
    peer_manager.o(i.pm_peer_data_store) refers to peer_manager.o(.data) for .data
    peer_manager.o(i.pm_peer_delete) refers to id_manager.o(i.im_peer_free) for im_peer_free
    peer_manager.o(i.pm_peer_delete) refers to peer_manager.o(.data) for .data
    peer_manager.o(i.pm_peer_id_get) refers to id_manager.o(i.im_peer_id_get_by_conn_handle) for im_peer_id_get_by_conn_handle
    peer_manager.o(i.pm_peer_id_get) refers to peer_manager.o(.data) for .data
    peer_manager.o(i.pm_peer_new) refers to peer_data_storage.o(i.pds_peer_data_iterate_prepare) for pds_peer_data_iterate_prepare
    peer_manager.o(i.pm_peer_new) refers to id_manager.o(i.im_is_duplicate_bonding_data) for im_is_duplicate_bonding_data
    peer_manager.o(i.pm_peer_new) refers to peer_data_storage.o(i.pds_peer_data_iterate) for pds_peer_data_iterate
    peer_manager.o(i.pm_peer_new) refers to peer_database.o(i.pdb_peer_allocate) for pdb_peer_allocate
    peer_manager.o(i.pm_peer_new) refers to peer_database.o(i.pdb_raw_store) for pdb_raw_store
    peer_manager.o(i.pm_peer_new) refers to id_manager.o(i.im_peer_free) for im_peer_free
    peer_manager.o(i.pm_peer_new) refers to peer_manager.o(.data) for .data
    peer_manager.o(i.pm_peer_rank_highest) refers to peer_manager.o(i.pm_peer_ranks_get) for pm_peer_ranks_get
    peer_manager.o(i.pm_peer_rank_highest) refers to memseta.o(.text) for __aeabi_memclr4
    peer_manager.o(i.pm_peer_rank_highest) refers to id_manager.o(i.im_conn_handle_get) for im_conn_handle_get
    peer_manager.o(i.pm_peer_rank_highest) refers to peer_manager.o(i.evt_send) for evt_send
    peer_manager.o(i.pm_peer_rank_highest) refers to peer_database.o(i.pdb_raw_store) for pdb_raw_store
    peer_manager.o(i.pm_peer_rank_highest) refers to peer_manager.o(.data) for .data
    peer_manager.o(i.pm_peer_rank_highest) refers to peer_manager.o(.constdata) for .constdata
    peer_manager.o(i.pm_peer_ranks_get) refers to peer_database.o(i.pdb_next_peer_id_get) for pdb_next_peer_id_get
    peer_manager.o(i.pm_peer_ranks_get) refers to peer_database.o(i.pdb_peer_data_load) for pdb_peer_data_load
    peer_manager.o(i.pm_peer_ranks_get) refers to peer_manager.o(.data) for .data
    peer_manager.o(i.pm_peer_ranks_get) refers to peer_manager.o(.constdata) for .constdata
    peer_manager.o(i.pm_peers_delete) refers to peer_manager.o(i.pm_peer_delete) for pm_peer_delete
    peer_manager.o(i.pm_peers_delete) refers to peer_database.o(i.pdb_next_peer_id_get) for pdb_next_peer_id_get
    peer_manager.o(i.pm_peers_delete) refers to peer_manager.o(.data) for .data
    peer_manager.o(i.pm_privacy_get) refers to id_manager.o(i.im_privacy_get) for im_privacy_get
    peer_manager.o(i.pm_privacy_get) refers to peer_manager.o(.data) for .data
    peer_manager.o(i.pm_privacy_set) refers to id_manager.o(i.im_privacy_set) for im_privacy_set
    peer_manager.o(i.pm_privacy_set) refers to peer_manager.o(.data) for .data
    peer_manager.o(i.pm_register) refers to peer_manager.o(.data) for .data
    peer_manager.o(i.pm_register) refers to peer_manager.o(.bss) for .bss
    peer_manager.o(i.pm_sec_params_reply) refers to peer_manager.o(.data) for .data
    peer_manager.o(i.pm_sec_params_set) refers to security_manager.o(i.sm_sec_params_set) for sm_sec_params_set
    peer_manager.o(i.pm_sec_params_set) refers to peer_manager.o(.data) for .data
    peer_manager.o(i.pm_sm_evt_handler) refers to memseta.o(.text) for __aeabi_memclr4
    peer_manager.o(i.pm_sm_evt_handler) refers to main.o(i.__ARM_common_switch8) for __ARM_common_switch8
    peer_manager.o(i.pm_sm_evt_handler) refers to ble_conn_state.o(i.ble_conn_state_user_flag_set) for ble_conn_state_user_flag_set
    peer_manager.o(i.pm_sm_evt_handler) refers to ble_conn_state.o(i.ble_conn_state_user_flag_get) for ble_conn_state_user_flag_get
    peer_manager.o(i.pm_sm_evt_handler) refers to id_manager.o(i.im_peer_id_get_by_conn_handle) for im_peer_id_get_by_conn_handle
    peer_manager.o(i.pm_sm_evt_handler) refers to peer_manager.o(i.evt_send) for evt_send
    peer_manager.o(i.pm_sm_evt_handler) refers to peer_manager.o(.data) for .data
    peer_manager.o(i.pm_whitelist_get) refers to id_manager.o(i.im_whitelist_get) for im_whitelist_get
    peer_manager.o(i.pm_whitelist_get) refers to peer_manager.o(.data) for .data
    peer_manager.o(i.pm_whitelist_set) refers to id_manager.o(i.im_whitelist_set) for im_whitelist_set
    peer_manager.o(i.pm_whitelist_set) refers to peer_manager.o(.data) for .data
    peer_manager.o(.constdata) refers to peer_manager.o(.data) for m_current_highest_peer_rank
    pm_buffer.o(i.pm_buffer_block_acquire) refers to pm_mutex.o(i.pm_mutex_lock) for pm_mutex_lock
    pm_buffer.o(i.pm_buffer_block_acquire) refers to pm_buffer.o(i.pm_buffer_release) for pm_buffer_release
    pm_buffer.o(i.pm_buffer_init) refers to pm_mutex.o(i.pm_mutex_init) for pm_mutex_init
    pm_buffer.o(i.pm_buffer_ptr_get) refers to pm_mutex.o(i.pm_mutex_lock_status_get) for pm_mutex_lock_status_get
    pm_buffer.o(i.pm_buffer_release) refers to pm_mutex.o(i.pm_mutex_lock_status_get) for pm_mutex_lock_status_get
    pm_buffer.o(i.pm_buffer_release) refers to pm_mutex.o(i.pm_mutex_unlock) for pm_mutex_unlock
    pm_mutex.o(i.lock_by_mask) refers to app_util_platform.o(i.app_util_critical_region_enter) for app_util_critical_region_enter
    pm_mutex.o(i.lock_by_mask) refers to app_util_platform.o(i.app_util_critical_region_exit) for app_util_critical_region_exit
    pm_mutex.o(i.pm_mutex_init) refers to memseta.o(.text) for __aeabi_memclr
    pm_mutex.o(i.pm_mutex_lock) refers to pm_mutex.o(i.lock_by_mask) for lock_by_mask
    pm_mutex.o(i.pm_mutex_lock_first_available) refers to pm_mutex.o(i.lock_by_mask) for lock_by_mask
    pm_mutex.o(i.pm_mutex_unlock) refers to app_util_platform.o(i.app_util_critical_region_enter) for app_util_critical_region_enter
    pm_mutex.o(i.pm_mutex_unlock) refers to app_util_platform.o(i.app_util_critical_region_exit) for app_util_critical_region_exit
    security_dispatcher.o(i.auth_status_success_process) refers to ble_conn_state.o(i.ble_conn_state_role) for ble_conn_state_role
    security_dispatcher.o(i.auth_status_success_process) refers to id_manager.o(i.im_peer_id_get_by_conn_handle) for im_peer_id_get_by_conn_handle
    security_dispatcher.o(i.auth_status_success_process) refers to ble_conn_state.o(i.ble_conn_state_user_flag_set) for ble_conn_state_user_flag_set
    security_dispatcher.o(i.auth_status_success_process) refers to peer_database.o(i.pdb_write_buf_store) for pdb_write_buf_store
    security_dispatcher.o(i.auth_status_success_process) refers to security_dispatcher.o(i.evt_send) for evt_send
    security_dispatcher.o(i.auth_status_success_process) refers to ble_conn_state.o(i.ble_conn_state_user_flag_get) for ble_conn_state_user_flag_get
    security_dispatcher.o(i.auth_status_success_process) refers to id_manager.o(i.im_peer_free) for im_peer_free
    security_dispatcher.o(i.auth_status_success_process) refers to security_dispatcher.o(.data) for .data
    security_dispatcher.o(i.encryption_failure) refers to ble_conn_state.o(i.ble_conn_state_user_flag_set) for ble_conn_state_user_flag_set
    security_dispatcher.o(i.encryption_failure) refers to security_dispatcher.o(i.evt_send) for evt_send
    security_dispatcher.o(i.encryption_failure) refers to security_dispatcher.o(.constdata) for .constdata
    security_dispatcher.o(i.encryption_failure) refers to security_dispatcher.o(.data) for .data
    security_dispatcher.o(i.evt_send) refers to security_dispatcher.o(.constdata) for .constdata
    security_dispatcher.o(i.flag_id_init) refers to ble_conn_state.o(i.ble_conn_state_user_flag_acquire) for ble_conn_state_user_flag_acquire
    security_dispatcher.o(i.link_secure_central) refers to id_manager.o(i.im_peer_id_get_by_conn_handle) for im_peer_id_get_by_conn_handle
    security_dispatcher.o(i.link_secure_central) refers to security_dispatcher.o(i.link_secure_central_existing_peer) for link_secure_central_existing_peer
    security_dispatcher.o(i.link_secure_central) refers to security_dispatcher.o(i.link_secure_central_new_peer) for link_secure_central_new_peer
    security_dispatcher.o(i.link_secure_central) refers to security_dispatcher.o(i.sec_proc_start) for sec_proc_start
    security_dispatcher.o(i.link_secure_central) refers to security_dispatcher.o(i.sec_start_send) for sec_start_send
    security_dispatcher.o(i.link_secure_central_existing_peer) refers to peer_database.o(i.pdb_peer_data_ptr_get) for pdb_peer_data_ptr_get
    security_dispatcher.o(i.link_secure_central_existing_peer) refers to id_manager.o(i.im_master_id_is_valid) for im_master_id_is_valid
    security_dispatcher.o(i.link_secure_central_existing_peer) refers to peer_database.o(i.pdb_write_buf_get) for pdb_write_buf_get
    security_dispatcher.o(i.link_secure_central_existing_peer) refers to peer_database.o(i.pdb_write_buf_store_prepare) for pdb_write_buf_store_prepare
    security_dispatcher.o(i.link_secure_central_existing_peer) refers to peer_database.o(i.pdb_write_buf_release) for pdb_write_buf_release
    security_dispatcher.o(i.link_secure_central_existing_peer) refers to security_dispatcher.o(i.sec_proc_start) for sec_proc_start
    security_dispatcher.o(i.link_secure_central_new_peer) refers to peer_database.o(i.pdb_peer_allocate) for pdb_peer_allocate
    security_dispatcher.o(i.link_secure_central_new_peer) refers to peer_database.o(i.pdb_write_buf_get) for pdb_write_buf_get
    security_dispatcher.o(i.link_secure_central_new_peer) refers to peer_database.o(i.pdb_write_buf_store_prepare) for pdb_write_buf_store_prepare
    security_dispatcher.o(i.link_secure_central_new_peer) refers to peer_database.o(i.pdb_write_buf_release) for pdb_write_buf_release
    security_dispatcher.o(i.link_secure_central_new_peer) refers to security_dispatcher.o(i.sec_proc_start) for sec_proc_start
    security_dispatcher.o(i.link_secure_failure) refers to ble_conn_state.o(i.ble_conn_state_user_flag_get) for ble_conn_state_user_flag_get
    security_dispatcher.o(i.link_secure_failure) refers to id_manager.o(i.im_peer_id_get_by_conn_handle) for im_peer_id_get_by_conn_handle
    security_dispatcher.o(i.link_secure_failure) refers to security_dispatcher.o(i.pairing_failure) for pairing_failure
    security_dispatcher.o(i.link_secure_failure) refers to security_dispatcher.o(i.encryption_failure) for encryption_failure
    security_dispatcher.o(i.link_secure_failure) refers to security_dispatcher.o(.data) for .data
    security_dispatcher.o(i.pairing_failure) refers to ble_conn_state.o(i.ble_conn_state_user_flag_get) for ble_conn_state_user_flag_get
    security_dispatcher.o(i.pairing_failure) refers to id_manager.o(i.im_peer_free) for im_peer_free
    security_dispatcher.o(i.pairing_failure) refers to peer_database.o(i.pdb_write_buf_release) for pdb_write_buf_release
    security_dispatcher.o(i.pairing_failure) refers to security_dispatcher.o(i.evt_send) for evt_send
    security_dispatcher.o(i.pairing_failure) refers to ble_conn_state.o(i.ble_conn_state_user_flag_set) for ble_conn_state_user_flag_set
    security_dispatcher.o(i.pairing_failure) refers to security_dispatcher.o(.constdata) for .constdata
    security_dispatcher.o(i.pairing_failure) refers to security_dispatcher.o(.data) for .data
    security_dispatcher.o(i.sec_info_request_process) refers to id_manager.o(i.im_peer_id_get_by_master_id) for im_peer_id_get_by_master_id
    security_dispatcher.o(i.sec_info_request_process) refers to id_manager.o(i.im_peer_id_get_by_conn_handle) for im_peer_id_get_by_conn_handle
    security_dispatcher.o(i.sec_info_request_process) refers to peer_database.o(i.pdb_peer_data_ptr_get) for pdb_peer_data_ptr_get
    security_dispatcher.o(i.sec_info_request_process) refers to id_manager.o(i.im_master_ids_compare) for im_master_ids_compare
    security_dispatcher.o(i.sec_info_request_process) refers to security_dispatcher.o(i.evt_send) for evt_send
    security_dispatcher.o(i.sec_info_request_process) refers to security_dispatcher.o(i.sec_start_send) for sec_start_send
    security_dispatcher.o(i.sec_info_request_process) refers to security_dispatcher.o(i.sec_proc_start) for sec_proc_start
    security_dispatcher.o(i.sec_proc_start) refers to ble_conn_state.o(i.ble_conn_state_user_flag_set) for ble_conn_state_user_flag_set
    security_dispatcher.o(i.sec_proc_start) refers to id_manager.o(i.im_new_peer_id) for im_new_peer_id
    security_dispatcher.o(i.sec_proc_start) refers to id_manager.o(i.im_peer_free) for im_peer_free
    security_dispatcher.o(i.sec_proc_start) refers to security_dispatcher.o(.data) for .data
    security_dispatcher.o(i.sec_start_send) refers to security_dispatcher.o(i.evt_send) for evt_send
    security_dispatcher.o(i.sec_start_send) refers to security_dispatcher.o(.constdata) for .constdata
    security_dispatcher.o(i.smd_ble_evt_handler) refers to security_dispatcher.o(i.sec_info_request_process) for sec_info_request_process
    security_dispatcher.o(i.smd_ble_evt_handler) refers to security_dispatcher.o(i.evt_send) for evt_send
    security_dispatcher.o(i.smd_ble_evt_handler) refers to security_dispatcher.o(i.link_secure_failure) for link_secure_failure
    security_dispatcher.o(i.smd_ble_evt_handler) refers to security_dispatcher.o(i.auth_status_success_process) for auth_status_success_process
    security_dispatcher.o(i.smd_ble_evt_handler) refers to ble_conn_state.o(i.ble_conn_state_encrypted) for ble_conn_state_encrypted
    security_dispatcher.o(i.smd_ble_evt_handler) refers to ble_conn_state.o(i.ble_conn_state_user_flag_get) for ble_conn_state_user_flag_get
    security_dispatcher.o(i.smd_ble_evt_handler) refers to ble_conn_state.o(i.ble_conn_state_user_flag_set) for ble_conn_state_user_flag_set
    security_dispatcher.o(i.smd_ble_evt_handler) refers to ble_conn_state.o(i.ble_conn_state_mitm_protected) for ble_conn_state_mitm_protected
    security_dispatcher.o(i.smd_ble_evt_handler) refers to security_dispatcher.o(i.encryption_failure) for encryption_failure
    security_dispatcher.o(i.smd_ble_evt_handler) refers to security_dispatcher.o(.constdata) for .constdata
    security_dispatcher.o(i.smd_ble_evt_handler) refers to security_dispatcher.o(.data) for .data
    security_dispatcher.o(i.smd_init) refers to security_dispatcher.o(i.flag_id_init) for flag_id_init
    security_dispatcher.o(i.smd_init) refers to security_dispatcher.o(.data) for .data
    security_dispatcher.o(i.smd_link_secure) refers to ble_conn_state.o(i.ble_conn_state_role) for ble_conn_state_role
    security_dispatcher.o(i.smd_link_secure) refers to security_dispatcher.o(i.link_secure_central) for link_secure_central
    security_dispatcher.o(i.smd_params_reply) refers to ble_conn_state.o(i.ble_conn_state_role) for ble_conn_state_role
    security_dispatcher.o(i.smd_params_reply) refers to memseta.o(.text) for __aeabi_memclr4
    security_dispatcher.o(i.smd_params_reply) refers to id_manager.o(i.im_peer_id_get_by_conn_handle) for im_peer_id_get_by_conn_handle
    security_dispatcher.o(i.smd_params_reply) refers to peer_database.o(i.pdb_peer_allocate) for pdb_peer_allocate
    security_dispatcher.o(i.smd_params_reply) refers to peer_database.o(i.pdb_write_buf_get) for pdb_write_buf_get
    security_dispatcher.o(i.smd_params_reply) refers to id_manager.o(i.im_ble_addr_get) for im_ble_addr_get
    security_dispatcher.o(i.smd_params_reply) refers to peer_database.o(i.pdb_write_buf_store_prepare) for pdb_write_buf_store_prepare
    security_dispatcher.o(i.smd_params_reply) refers to security_dispatcher.o(i.sec_start_send) for sec_start_send
    security_dispatcher.o(i.smd_params_reply) refers to security_dispatcher.o(i.sec_proc_start) for sec_proc_start
    security_dispatcher.o(i.smd_params_reply) refers to security_dispatcher.o(.bss) for .bss
    security_dispatcher.o(i.smd_pdb_evt_handler) refers to id_manager.o(i.im_conn_handle_get) for im_conn_handle_get
    security_dispatcher.o(i.smd_pdb_evt_handler) refers to security_dispatcher.o(i.evt_send) for evt_send
    security_dispatcher.o(i.smd_pdb_evt_handler) refers to security_dispatcher.o(.constdata) for .constdata
    security_dispatcher.o(.constdata) refers to security_manager.o(i.sm_smd_evt_handler) for sm_smd_evt_handler
    security_dispatcher.o(.constdata) refers to gatt_cache_manager.o(i.gcm_smd_evt_handler) for gcm_smd_evt_handler
    security_manager.o(i.events_send_from_err_code) refers to security_manager.o(i.evt_send) for evt_send
    security_manager.o(i.evt_send) refers to security_manager.o(.constdata) for .constdata
    security_manager.o(i.flag_id_init) refers to ble_conn_state.o(i.ble_conn_state_user_flag_acquire) for ble_conn_state_user_flag_acquire
    security_manager.o(i.flags_set_from_err_code) refers to ble_conn_state.o(i.ble_conn_state_user_flag_set) for ble_conn_state_user_flag_set
    security_manager.o(i.flags_set_from_err_code) refers to security_manager.o(.data) for .data
    security_manager.o(i.link_secure) refers to security_dispatcher.o(i.smd_link_secure) for smd_link_secure
    security_manager.o(i.link_secure) refers to security_manager.o(i.flags_set_from_err_code) for flags_set_from_err_code
    security_manager.o(i.link_secure) refers to security_manager.o(i.events_send_from_err_code) for events_send_from_err_code
    security_manager.o(i.link_secure) refers to ble_conn_state.o(i.ble_conn_state_user_flag_set) for ble_conn_state_user_flag_set
    security_manager.o(i.link_secure) refers to security_manager.o(.data) for .data
    security_manager.o(i.link_secure_pending_process) refers to ble_conn_state.o(i.ble_conn_state_user_flag_collection) for ble_conn_state_user_flag_collection
    security_manager.o(i.link_secure_pending_process) refers to ble_conn_state.o(i.ble_conn_state_conn_handles) for ble_conn_state_conn_handles
    security_manager.o(i.link_secure_pending_process) refers to ble_conn_state.o(i.ble_conn_state_user_flag_get) for ble_conn_state_user_flag_get
    security_manager.o(i.link_secure_pending_process) refers to security_manager.o(i.link_secure) for link_secure
    security_manager.o(i.link_secure_pending_process) refers to security_manager.o(.data) for .data
    security_manager.o(i.params_reply_pending_process) refers to ble_conn_state.o(i.ble_conn_state_user_flag_collection) for ble_conn_state_user_flag_collection
    security_manager.o(i.params_reply_pending_process) refers to ble_conn_state.o(i.ble_conn_state_conn_handles) for ble_conn_state_conn_handles
    security_manager.o(i.params_reply_pending_process) refers to ble_conn_state.o(i.ble_conn_state_user_flag_get) for ble_conn_state_user_flag_get
    security_manager.o(i.params_reply_pending_process) refers to security_manager.o(i.smd_params_reply_perform) for smd_params_reply_perform
    security_manager.o(i.sm_ble_evt_handler) refers to security_dispatcher.o(i.smd_ble_evt_handler) for smd_ble_evt_handler
    security_manager.o(i.sm_ble_evt_handler) refers to security_manager.o(i.link_secure_pending_process) for link_secure_pending_process
    security_manager.o(i.sm_ble_evt_handler) refers to security_manager.o(.data) for .data
    security_manager.o(i.sm_conn_sec_config_reply) refers to ble_conn_state.o(i.ble_conn_state_user_flag_set) for ble_conn_state_user_flag_set
    security_manager.o(i.sm_conn_sec_config_reply) refers to security_manager.o(.data) for .data
    security_manager.o(i.sm_init) refers to security_manager.o(i.flag_id_init) for flag_id_init
    security_manager.o(i.sm_init) refers to security_manager.o(.data) for .data
    security_manager.o(i.sm_lesc_public_key_set) refers to security_manager.o(.data) for .data
    security_manager.o(i.sm_link_secure) refers to security_manager.o(i.link_secure) for link_secure
    security_manager.o(i.sm_pdb_evt_handler) refers to main.o(i.__ARM_common_switch8) for __ARM_common_switch8
    security_manager.o(i.sm_pdb_evt_handler) refers to security_manager.o(i.params_reply_pending_process) for params_reply_pending_process
    security_manager.o(i.sm_pdb_evt_handler) refers to security_manager.o(i.link_secure_pending_process) for link_secure_pending_process
    security_manager.o(i.sm_pdb_evt_handler) refers to security_manager.o(.data) for .data
    security_manager.o(i.sm_sec_params_set) refers to security_manager.o(i.sec_params_verify) for sec_params_verify
    security_manager.o(i.sm_sec_params_set) refers to memmovea.o(.text) for __aeabi_memcpy
    security_manager.o(i.sm_sec_params_set) refers to security_manager.o(.data) for .data
    security_manager.o(i.sm_smd_evt_handler) refers to main.o(i.__ARM_common_switch8) for __ARM_common_switch8
    security_manager.o(i.sm_smd_evt_handler) refers to security_manager.o(i.smd_params_reply_perform) for smd_params_reply_perform
    security_manager.o(i.sm_smd_evt_handler) refers to security_manager.o(i.link_secure) for link_secure
    security_manager.o(i.sm_smd_evt_handler) refers to security_manager.o(i.evt_send) for evt_send
    security_manager.o(i.sm_smd_evt_handler) refers to security_manager.o(.data) for .data
    security_manager.o(i.smd_params_reply_perform) refers to ble_conn_state.o(i.ble_conn_state_role) for ble_conn_state_role
    security_manager.o(i.smd_params_reply_perform) refers to id_manager.o(i.im_peer_id_get_by_conn_handle) for im_peer_id_get_by_conn_handle
    security_manager.o(i.smd_params_reply_perform) refers to ble_conn_state.o(i.ble_conn_state_user_flag_set) for ble_conn_state_user_flag_set
    security_manager.o(i.smd_params_reply_perform) refers to security_manager.o(i.evt_send) for evt_send
    security_manager.o(i.smd_params_reply_perform) refers to ble_conn_state.o(i.ble_conn_state_user_flag_get) for ble_conn_state_user_flag_get
    security_manager.o(i.smd_params_reply_perform) refers to security_dispatcher.o(i.smd_params_reply) for smd_params_reply
    security_manager.o(i.smd_params_reply_perform) refers to security_manager.o(i.flags_set_from_err_code) for flags_set_from_err_code
    security_manager.o(i.smd_params_reply_perform) refers to security_manager.o(i.events_send_from_err_code) for events_send_from_err_code
    security_manager.o(i.smd_params_reply_perform) refers to security_manager.o(.data) for .data
    security_manager.o(.constdata) refers to peer_manager.o(i.pm_sm_evt_handler) for pm_sm_evt_handler
    ble_bas.o(i.battery_level_char_add) refers to memseta.o(.text) for __aeabi_memclr4
    ble_bas.o(i.battery_level_char_add) refers to ble_srv_common.o(i.ble_srv_report_ref_encode) for ble_srv_report_ref_encode
    ble_bas.o(i.ble_bas_init) refers to ble_bas.o(i.battery_level_char_add) for battery_level_char_add
    ble_bas.o(i.ble_bas_on_ble_evt) refers to ble_srv_common.o(i.ble_srv_is_notification_enabled) for ble_srv_is_notification_enabled
    ble_dis.o(i.ble_dis_init) refers to ble_dis.o(i.char_add) for char_add
    ble_dis.o(i.ble_dis_init) refers to ble_dis.o(i.sys_id_encode) for sys_id_encode
    ble_dis.o(i.ble_dis_init) refers to ble_dis.o(i.pnp_id_encode) for pnp_id_encode
    ble_dis.o(i.ble_dis_init) refers to ble_dis.o(.data) for .data
    ble_dis.o(i.char_add) refers to app_error.o(i.app_error_handler_bare) for app_error_handler_bare
    ble_dis.o(i.char_add) refers to memseta.o(.text) for __aeabi_memclr4
    ble_dis.o(i.char_add) refers to ble_dis.o(.data) for .data
    ble_dis.o(i.pnp_id_encode) refers to app_error.o(i.app_error_handler_bare) for app_error_handler_bare
    ble_dis.o(i.sys_id_encode) refers to app_error.o(i.app_error_handler_bare) for app_error_handler_bare
    ble_hrs.o(i.ble_hrs_heart_rate_measurement_send) refers to ble_hrs.o(i.hrm_encode) for hrm_encode
    ble_hrs.o(i.ble_hrs_init) refers to ble_hrs.o(i.heart_rate_measurement_char_add) for heart_rate_measurement_char_add
    ble_hrs.o(i.ble_hrs_init) refers to ble_hrs.o(i.body_sensor_location_char_add) for body_sensor_location_char_add
    ble_hrs.o(i.ble_hrs_on_ble_evt) refers to ble_srv_common.o(i.ble_srv_is_notification_enabled) for ble_srv_is_notification_enabled
    ble_hrs.o(i.ble_hrs_rr_interval_add) refers to memmovea.o(.text) for __aeabi_memmove
    ble_hrs.o(i.body_sensor_location_char_add) refers to memseta.o(.text) for __aeabi_memclr4
    ble_hrs.o(i.heart_rate_measurement_char_add) refers to memseta.o(.text) for __aeabi_memclr4
    ble_hrs.o(i.heart_rate_measurement_char_add) refers to ble_hrs.o(i.hrm_encode) for hrm_encode
    ble_hrs.o(i.hrm_encode) refers to memmovea.o(.text) for __aeabi_memmove
    nrf_drv_clock.o(i.POWER_CLOCK_IRQHandler) refers to nrf_drv_clock.o(i.nrf_clock_event_check) for nrf_clock_event_check
    nrf_drv_clock.o(i.POWER_CLOCK_IRQHandler) refers to nrf_drv_clock.o(i.clock_clk_started_notify) for clock_clk_started_notify
    nrf_drv_clock.o(i.POWER_CLOCK_IRQHandler) refers to nrf_drv_clock.o(.bss) for .bss
    nrf_drv_clock.o(i.clock_clk_started_notify) refers to nrf_drv_clock.o(.bss) for .bss
    nrf_drv_clock.o(i.hfclk_stop) refers to softdevice_handler.o(i.softdevice_handler_is_enabled) for softdevice_handler_is_enabled
    nrf_drv_clock.o(i.hfclk_stop) refers to nrf_drv_clock.o(i.nrf_clock_hf_is_running) for nrf_clock_hf_is_running
    nrf_drv_clock.o(i.hfclk_stop) refers to nrf_drv_clock.o(.bss) for .bss
    nrf_drv_clock.o(i.lfclk_stop) refers to nrf_drv_clock.o(.bss) for .bss
    nrf_drv_clock.o(i.nrf_drv_clock_hfclk_is_running) refers to softdevice_handler.o(i.softdevice_handler_is_enabled) for softdevice_handler_is_enabled
    nrf_drv_clock.o(i.nrf_drv_clock_hfclk_is_running) refers to nrf_drv_clock.o(i.nrf_clock_hf_is_running) for nrf_clock_hf_is_running
    nrf_drv_clock.o(i.nrf_drv_clock_hfclk_release) refers to app_util_platform.o(i.app_util_critical_region_enter) for app_util_critical_region_enter
    nrf_drv_clock.o(i.nrf_drv_clock_hfclk_release) refers to nrf_drv_clock.o(i.hfclk_stop) for hfclk_stop
    nrf_drv_clock.o(i.nrf_drv_clock_hfclk_release) refers to app_util_platform.o(i.app_util_critical_region_exit) for app_util_critical_region_exit
    nrf_drv_clock.o(i.nrf_drv_clock_hfclk_release) refers to nrf_drv_clock.o(.bss) for .bss
    nrf_drv_clock.o(i.nrf_drv_clock_hfclk_request) refers to app_util_platform.o(i.app_util_critical_region_enter) for app_util_critical_region_enter
    nrf_drv_clock.o(i.nrf_drv_clock_hfclk_request) refers to nrf_drv_clock.o(i.item_enqueue) for item_enqueue
    nrf_drv_clock.o(i.nrf_drv_clock_hfclk_request) refers to softdevice_handler.o(i.softdevice_handler_is_enabled) for softdevice_handler_is_enabled
    nrf_drv_clock.o(i.nrf_drv_clock_hfclk_request) refers to app_util_platform.o(i.app_util_critical_region_exit) for app_util_critical_region_exit
    nrf_drv_clock.o(i.nrf_drv_clock_hfclk_request) refers to nrf_drv_clock.o(.bss) for .bss
    nrf_drv_clock.o(i.nrf_drv_clock_init) refers to nrf_drv_common.o(i.nrf_drv_common_irq_enable) for nrf_drv_common_irq_enable
    nrf_drv_clock.o(i.nrf_drv_clock_init) refers to softdevice_handler.o(i.softdevice_handler_is_enabled) for softdevice_handler_is_enabled
    nrf_drv_clock.o(i.nrf_drv_clock_init) refers to nrf_drv_clock.o(.bss) for .bss
    nrf_drv_clock.o(i.nrf_drv_clock_init_check) refers to nrf_drv_clock.o(.bss) for .bss
    nrf_drv_clock.o(i.nrf_drv_clock_lfclk_is_running) refers to softdevice_handler.o(i.softdevice_handler_is_enabled) for softdevice_handler_is_enabled
    nrf_drv_clock.o(i.nrf_drv_clock_lfclk_release) refers to app_util_platform.o(i.app_util_critical_region_enter) for app_util_critical_region_enter
    nrf_drv_clock.o(i.nrf_drv_clock_lfclk_release) refers to nrf_drv_clock.o(i.lfclk_stop) for lfclk_stop
    nrf_drv_clock.o(i.nrf_drv_clock_lfclk_release) refers to app_util_platform.o(i.app_util_critical_region_exit) for app_util_critical_region_exit
    nrf_drv_clock.o(i.nrf_drv_clock_lfclk_release) refers to nrf_drv_clock.o(.bss) for .bss
    nrf_drv_clock.o(i.nrf_drv_clock_lfclk_request) refers to app_util_platform.o(i.app_util_critical_region_enter) for app_util_critical_region_enter
    nrf_drv_clock.o(i.nrf_drv_clock_lfclk_request) refers to nrf_drv_clock.o(i.item_enqueue) for item_enqueue
    nrf_drv_clock.o(i.nrf_drv_clock_lfclk_request) refers to app_util_platform.o(i.app_util_critical_region_exit) for app_util_critical_region_exit
    nrf_drv_clock.o(i.nrf_drv_clock_lfclk_request) refers to nrf_drv_clock.o(.bss) for .bss
    nrf_drv_clock.o(i.nrf_drv_clock_on_sd_disable) refers to nrf_drv_common.o(i.nrf_drv_common_irq_enable) for nrf_drv_common_irq_enable
    nrf_drv_clock.o(i.nrf_drv_clock_on_sd_disable) refers to nrf_drv_clock.o(i.nrf_drv_clock_lfclk_release) for nrf_drv_clock_lfclk_release
    nrf_drv_clock.o(i.nrf_drv_clock_on_sd_enable) refers to app_util_platform.o(i.app_util_critical_region_enter) for app_util_critical_region_enter
    nrf_drv_clock.o(i.nrf_drv_clock_on_sd_enable) refers to nrf_drv_clock.o(i.nrf_drv_clock_init) for nrf_drv_clock_init
    nrf_drv_clock.o(i.nrf_drv_clock_on_sd_enable) refers to app_util_platform.o(i.app_util_critical_region_exit) for app_util_critical_region_exit
    nrf_drv_clock.o(i.nrf_drv_clock_on_sd_enable) refers to nrf_drv_clock.o(.bss) for .bss
    nrf_drv_clock.o(i.nrf_drv_clock_on_soc_event) refers to nrf_drv_clock.o(i.clock_clk_started_notify) for clock_clk_started_notify
    nrf_drv_clock.o(i.nrf_drv_clock_uninit) refers to nrf_drv_common.o(i.nrf_drv_common_clock_irq_disable) for nrf_drv_common_clock_irq_disable
    nrf_drv_clock.o(i.nrf_drv_clock_uninit) refers to nrf_drv_clock.o(i.lfclk_stop) for lfclk_stop
    nrf_drv_clock.o(i.nrf_drv_clock_uninit) refers to nrf_drv_clock.o(i.hfclk_stop) for hfclk_stop
    nrf_drv_clock.o(i.nrf_drv_clock_uninit) refers to nrf_drv_clock.o(.bss) for .bss
    nrf_drv_gpiote.o(i.GPIOTE_IRQHandler) refers to nrf_drv_gpiote.o(i.nrf_gpiote_event_is_set) for nrf_gpiote_event_is_set
    nrf_drv_gpiote.o(i.GPIOTE_IRQHandler) refers to nrf_drv_gpiote.o(i.nrf_gpiote_event_clear) for nrf_gpiote_event_clear
    nrf_drv_gpiote.o(i.GPIOTE_IRQHandler) refers to nrf_drv_gpiote.o(i.nrf_gpio_ports_read) for nrf_gpio_ports_read
    nrf_drv_gpiote.o(i.GPIOTE_IRQHandler) refers to nrf_drv_gpiote.o(i.nrf_bitmask_bit_is_set) for nrf_bitmask_bit_is_set
    nrf_drv_gpiote.o(i.GPIOTE_IRQHandler) refers to nrf_drv_gpiote.o(i.channel_port_get) for channel_port_get
    nrf_drv_gpiote.o(i.GPIOTE_IRQHandler) refers to nrf_drv_gpiote.o(i.nrf_gpio_cfg_sense_set) for nrf_gpio_cfg_sense_set
    nrf_drv_gpiote.o(i.GPIOTE_IRQHandler) refers to nrf_drv_gpiote.o(.bss) for .bss
    nrf_drv_gpiote.o(i.channel_free) refers to nrf_drv_gpiote.o(.bss) for .bss
    nrf_drv_gpiote.o(i.channel_port_alloc) refers to nrf_drv_gpiote.o(.bss) for .bss
    nrf_drv_gpiote.o(i.channel_port_get) refers to nrf_drv_gpiote.o(.bss) for .bss
    nrf_drv_gpiote.o(i.nrf_drv_gpiote_in_event_addr_get) refers to nrf_drv_gpiote.o(i.pin_in_use_by_te) for pin_in_use_by_te
    nrf_drv_gpiote.o(i.nrf_drv_gpiote_in_event_addr_get) refers to nrf_drv_gpiote.o(i.channel_port_get) for channel_port_get
    nrf_drv_gpiote.o(i.nrf_drv_gpiote_in_event_disable) refers to nrf_drv_gpiote.o(i.pin_in_use_by_port) for pin_in_use_by_port
    nrf_drv_gpiote.o(i.nrf_drv_gpiote_in_event_disable) refers to nrf_drv_gpiote.o(i.nrf_gpio_cfg_sense_set) for nrf_gpio_cfg_sense_set
    nrf_drv_gpiote.o(i.nrf_drv_gpiote_in_event_disable) refers to nrf_drv_gpiote.o(i.pin_in_use_by_te) for pin_in_use_by_te
    nrf_drv_gpiote.o(i.nrf_drv_gpiote_in_event_disable) refers to nrf_drv_gpiote.o(i.channel_port_get) for channel_port_get
    nrf_drv_gpiote.o(i.nrf_drv_gpiote_in_event_enable) refers to nrf_drv_gpiote.o(i.pin_in_use_by_port) for pin_in_use_by_port
    nrf_drv_gpiote.o(i.nrf_drv_gpiote_in_event_enable) refers to nrf_drv_gpiote.o(i.channel_port_get) for channel_port_get
    nrf_drv_gpiote.o(i.nrf_drv_gpiote_in_event_enable) refers to nrf_drv_gpiote.o(i.nrf_gpio_cfg_sense_set) for nrf_gpio_cfg_sense_set
    nrf_drv_gpiote.o(i.nrf_drv_gpiote_in_event_enable) refers to nrf_drv_gpiote.o(i.pin_in_use_by_te) for pin_in_use_by_te
    nrf_drv_gpiote.o(i.nrf_drv_gpiote_in_event_enable) refers to nrf_drv_gpiote.o(i.nrf_gpiote_event_clear) for nrf_gpiote_event_clear
    nrf_drv_gpiote.o(i.nrf_drv_gpiote_in_event_enable) refers to nrf_drv_gpiote.o(.bss) for .bss
    nrf_drv_gpiote.o(i.nrf_drv_gpiote_in_init) refers to nrf_drv_gpiote.o(i.channel_port_alloc) for channel_port_alloc
    nrf_drv_gpiote.o(i.nrf_drv_gpiote_in_init) refers to nrf_drv_gpiote.o(i.nrf_gpio_cfg) for nrf_gpio_cfg
    nrf_drv_gpiote.o(i.nrf_drv_gpiote_in_init) refers to nrf_drv_gpiote.o(.bss) for .bss
    nrf_drv_gpiote.o(i.nrf_drv_gpiote_in_uninit) refers to nrf_drv_gpiote.o(i.nrf_drv_gpiote_in_event_disable) for nrf_drv_gpiote_in_event_disable
    nrf_drv_gpiote.o(i.nrf_drv_gpiote_in_uninit) refers to nrf_drv_gpiote.o(i.pin_in_use_by_te) for pin_in_use_by_te
    nrf_drv_gpiote.o(i.nrf_drv_gpiote_in_uninit) refers to nrf_drv_gpiote.o(i.channel_port_get) for channel_port_get
    nrf_drv_gpiote.o(i.nrf_drv_gpiote_in_uninit) refers to nrf_drv_gpiote.o(i.nrf_gpio_cfg_default) for nrf_gpio_cfg_default
    nrf_drv_gpiote.o(i.nrf_drv_gpiote_in_uninit) refers to nrf_drv_gpiote.o(i.channel_free) for channel_free
    nrf_drv_gpiote.o(i.nrf_drv_gpiote_in_uninit) refers to nrf_drv_gpiote.o(.bss) for .bss
    nrf_drv_gpiote.o(i.nrf_drv_gpiote_init) refers to nrf_drv_gpiote.o(i.channel_free) for channel_free
    nrf_drv_gpiote.o(i.nrf_drv_gpiote_init) refers to nrf_drv_common.o(i.nrf_drv_common_irq_enable) for nrf_drv_common_irq_enable
    nrf_drv_gpiote.o(i.nrf_drv_gpiote_init) refers to nrf_drv_gpiote.o(i.nrf_gpiote_event_clear) for nrf_gpiote_event_clear
    nrf_drv_gpiote.o(i.nrf_drv_gpiote_init) refers to nrf_drv_gpiote.o(.bss) for .bss
    nrf_drv_gpiote.o(i.nrf_drv_gpiote_is_init) refers to nrf_drv_gpiote.o(.bss) for .bss
    nrf_drv_gpiote.o(i.nrf_drv_gpiote_out_init) refers to nrf_drv_gpiote.o(i.channel_port_alloc) for channel_port_alloc
    nrf_drv_gpiote.o(i.nrf_drv_gpiote_out_init) refers to nrf_drv_gpiote.o(i.nrf_gpio_cfg) for nrf_gpio_cfg
    nrf_drv_gpiote.o(i.nrf_drv_gpiote_out_init) refers to nrf_drv_gpiote.o(.bss) for .bss
    nrf_drv_gpiote.o(i.nrf_drv_gpiote_out_task_addr_get) refers to nrf_drv_gpiote.o(i.channel_port_get) for channel_port_get
    nrf_drv_gpiote.o(i.nrf_drv_gpiote_out_task_disable) refers to nrf_drv_gpiote.o(.bss) for .bss
    nrf_drv_gpiote.o(i.nrf_drv_gpiote_out_task_enable) refers to nrf_drv_gpiote.o(.bss) for .bss
    nrf_drv_gpiote.o(i.nrf_drv_gpiote_out_task_force) refers to nrf_drv_gpiote.o(.bss) for .bss
    nrf_drv_gpiote.o(i.nrf_drv_gpiote_out_task_trigger) refers to nrf_drv_gpiote.o(i.channel_port_get) for channel_port_get
    nrf_drv_gpiote.o(i.nrf_drv_gpiote_out_uninit) refers to nrf_drv_gpiote.o(i.pin_in_use_by_te) for pin_in_use_by_te
    nrf_drv_gpiote.o(i.nrf_drv_gpiote_out_uninit) refers to nrf_drv_gpiote.o(i.channel_port_get) for channel_port_get
    nrf_drv_gpiote.o(i.nrf_drv_gpiote_out_uninit) refers to nrf_drv_gpiote.o(i.channel_free) for channel_free
    nrf_drv_gpiote.o(i.nrf_drv_gpiote_out_uninit) refers to nrf_drv_gpiote.o(i.nrf_gpio_cfg_default) for nrf_gpio_cfg_default
    nrf_drv_gpiote.o(i.nrf_drv_gpiote_out_uninit) refers to nrf_drv_gpiote.o(.bss) for .bss
    nrf_drv_gpiote.o(i.nrf_drv_gpiote_uninit) refers to nrf_drv_gpiote.o(i.nrf_drv_gpiote_in_uninit) for nrf_drv_gpiote_in_uninit
    nrf_drv_gpiote.o(i.nrf_drv_gpiote_uninit) refers to nrf_drv_gpiote.o(i.nrf_drv_gpiote_out_uninit) for nrf_drv_gpiote_out_uninit
    nrf_drv_gpiote.o(i.nrf_drv_gpiote_uninit) refers to nrf_drv_gpiote.o(.bss) for .bss
    nrf_drv_gpiote.o(i.nrf_gpio_cfg_default) refers to nrf_drv_gpiote.o(i.nrf_gpio_cfg) for nrf_gpio_cfg
    nrf_drv_gpiote.o(i.nrf_gpio_ports_read) refers to nrf_drv_gpiote.o(.constdata) for .constdata
    nrf_drv_gpiote.o(i.pin_in_use_by_port) refers to nrf_drv_gpiote.o(.bss) for .bss
    nrf_drv_gpiote.o(i.pin_in_use_by_te) refers to nrf_drv_gpiote.o(.bss) for .bss
    nrf_drv_uart.o(i.UART0_IRQHandler) refers to nrf_drv_uart.o(i.uart_irq_handler) for uart_irq_handler
    nrf_drv_uart.o(i.UART0_IRQHandler) refers to nrf_drv_uart.o(.bss) for .bss
    nrf_drv_uart.o(i.apply_config) refers to nrf_drv_uart.o(i.nrf_gpio_cfg_output) for nrf_gpio_cfg_output
    nrf_drv_uart.o(i.apply_config) refers to nrf_drv_uart.o(i.nrf_gpio_cfg_input) for nrf_gpio_cfg_input
    nrf_drv_uart.o(i.nrf_drv_uart_init) refers to nrf_drv_uart.o(i.apply_config) for apply_config
    nrf_drv_uart.o(i.nrf_drv_uart_init) refers to nrf_drv_common.o(i.nrf_drv_common_irq_enable) for nrf_drv_common_irq_enable
    nrf_drv_uart.o(i.nrf_drv_uart_init) refers to nrf_drv_uart.o(.bss) for .bss
    nrf_drv_uart.o(i.nrf_drv_uart_rx) refers to nrf_drv_uart.o(i.nrf_drv_uart_rx_for_uart) for nrf_drv_uart_rx_for_uart
    nrf_drv_uart.o(i.nrf_drv_uart_rx) refers to nrf_drv_uart.o(.bss) for .bss
    nrf_drv_uart.o(i.nrf_drv_uart_rx_disable) refers to nrf_drv_uart.o(.bss) for .bss
    nrf_drv_uart.o(i.nrf_drv_uart_rx_enable) refers to nrf_drv_uart.o(i.rx_enable) for rx_enable
    nrf_drv_uart.o(i.nrf_drv_uart_rx_enable) refers to nrf_drv_uart.o(.bss) for .bss
    nrf_drv_uart.o(i.nrf_drv_uart_rx_for_uart) refers to nrf_drv_uart.o(i.rx_enable) for rx_enable
    nrf_drv_uart.o(i.nrf_drv_uart_rx_for_uart) refers to nrf_drv_uart.o(i.nrf_uart_event_check) for nrf_uart_event_check
    nrf_drv_uart.o(i.nrf_drv_uart_rx_for_uart) refers to nrf_drv_uart.o(i.rx_byte) for rx_byte
    nrf_drv_uart.o(i.nrf_drv_uart_rx_for_uart) refers to nrf_drv_uart.o(.bss) for .bss
    nrf_drv_uart.o(i.nrf_drv_uart_tx) refers to nrf_drv_uart.o(i.nrf_drv_uart_tx_in_progress) for nrf_drv_uart_tx_in_progress
    nrf_drv_uart.o(i.nrf_drv_uart_tx) refers to nrf_drv_uart.o(i.nrf_drv_uart_tx_for_uart) for nrf_drv_uart_tx_for_uart
    nrf_drv_uart.o(i.nrf_drv_uart_tx) refers to nrf_drv_uart.o(.bss) for .bss
    nrf_drv_uart.o(i.nrf_drv_uart_tx_abort) refers to nrf_drv_uart.o(i.tx_done_event) for tx_done_event
    nrf_drv_uart.o(i.nrf_drv_uart_tx_abort) refers to nrf_drv_uart.o(.bss) for .bss
    nrf_drv_uart.o(i.nrf_drv_uart_tx_for_uart) refers to nrf_drv_uart.o(i.tx_byte) for tx_byte
    nrf_drv_uart.o(i.nrf_drv_uart_tx_for_uart) refers to nrf_drv_uart.o(i.nrf_uart_event_check) for nrf_uart_event_check
    nrf_drv_uart.o(i.nrf_drv_uart_tx_for_uart) refers to nrf_drv_uart.o(.bss) for .bss
    nrf_drv_uart.o(i.nrf_drv_uart_tx_in_progress) refers to nrf_drv_uart.o(.bss) for .bss
    nrf_drv_uart.o(i.nrf_drv_uart_uninit) refers to nrf_drv_uart.o(i.nrf_gpio_cfg_default) for nrf_gpio_cfg_default
    nrf_drv_uart.o(i.nrf_drv_uart_uninit) refers to nrf_drv_uart.o(.bss) for .bss
    nrf_drv_uart.o(i.nrf_gpio_cfg_default) refers to nrf_drv_uart.o(i.nrf_gpio_cfg) for nrf_gpio_cfg
    nrf_drv_uart.o(i.nrf_gpio_cfg_input) refers to nrf_drv_uart.o(i.nrf_gpio_cfg) for nrf_gpio_cfg
    nrf_drv_uart.o(i.nrf_gpio_cfg_output) refers to nrf_drv_uart.o(i.nrf_gpio_cfg) for nrf_gpio_cfg
    nrf_drv_uart.o(i.uart_irq_handler) refers to nrf_drv_uart.o(i.nrf_uart_int_enable_check) for nrf_uart_int_enable_check
    nrf_drv_uart.o(i.uart_irq_handler) refers to nrf_drv_uart.o(i.nrf_uart_event_check) for nrf_uart_event_check
    nrf_drv_uart.o(i.uart_irq_handler) refers to nrf_drv_uart.o(i.rx_byte) for rx_byte
    nrf_drv_uart.o(i.uart_irq_handler) refers to nrf_drv_uart.o(i.rx_done_event) for rx_done_event
    nrf_drv_uart.o(i.uart_irq_handler) refers to nrf_drv_uart.o(i.tx_byte) for tx_byte
    nrf_drv_uart.o(i.uart_irq_handler) refers to nrf_drv_uart.o(i.tx_done_event) for tx_done_event
    app_button.o(i.app_button_disable) refers to nrf_drv_gpiote.o(i.nrf_drv_gpiote_in_event_disable) for nrf_drv_gpiote_in_event_disable
    app_button.o(i.app_button_disable) refers to app_timer.o(i.app_timer_stop) for app_timer_stop
    app_button.o(i.app_button_disable) refers to app_button.o(.data) for .data
    app_button.o(i.app_button_disable) refers to app_button.o(.constdata) for .constdata
    app_button.o(i.app_button_enable) refers to nrf_drv_gpiote.o(i.nrf_drv_gpiote_in_event_enable) for nrf_drv_gpiote_in_event_enable
    app_button.o(i.app_button_enable) refers to app_button.o(.data) for .data
    app_button.o(i.app_button_init) refers to nrf_drv_gpiote.o(i.nrf_drv_gpiote_is_init) for nrf_drv_gpiote_is_init
    app_button.o(i.app_button_init) refers to nrf_drv_gpiote.o(i.nrf_drv_gpiote_init) for nrf_drv_gpiote_init
    app_button.o(i.app_button_init) refers to nrf_drv_gpiote.o(i.nrf_drv_gpiote_in_init) for nrf_drv_gpiote_in_init
    app_button.o(i.app_button_init) refers to app_timer.o(i.app_timer_create) for app_timer_create
    app_button.o(i.app_button_init) refers to app_button.o(.data) for .data
    app_button.o(i.app_button_init) refers to app_button.o(.constdata) for .constdata
    app_button.o(i.app_button_init) refers to app_button.o(i.gpiote_event_handler) for gpiote_event_handler
    app_button.o(i.app_button_init) refers to app_button.o(i.detection_delay_timeout_handler) for detection_delay_timeout_handler
    app_button.o(i.app_button_is_pushed) refers to nrf_drv_gpiote.o(i.nrf_drv_gpiote_in_is_set) for nrf_drv_gpiote_in_is_set
    app_button.o(i.app_button_is_pushed) refers to app_button.o(.data) for .data
    app_button.o(i.detection_delay_timeout_handler) refers to nrf_drv_gpiote.o(i.nrf_drv_gpiote_in_is_set) for nrf_drv_gpiote_in_is_set
    app_button.o(i.detection_delay_timeout_handler) refers to app_button.o(.data) for .data
    app_button.o(i.gpiote_event_handler) refers to app_timer.o(i.app_timer_stop) for app_timer_stop
    app_button.o(i.gpiote_event_handler) refers to nrf_drv_gpiote.o(i.nrf_drv_gpiote_in_is_set) for nrf_drv_gpiote_in_is_set
    app_button.o(i.gpiote_event_handler) refers to app_timer.o(i.app_timer_start) for app_timer_start
    app_button.o(i.gpiote_event_handler) refers to app_button.o(.constdata) for .constdata
    app_button.o(i.gpiote_event_handler) refers to app_button.o(.data) for .data
    app_button.o(.constdata) refers to app_button.o(.bss) for m_detection_delay_timer_id_data
    app_error.o(i.app_error_handler) refers to app_error_weak.o(i.app_error_fault_handler) for app_error_fault_handler
    app_error.o(i.app_error_handler_bare) refers to app_error_weak.o(i.app_error_fault_handler) for app_error_fault_handler
    app_error.o(i.app_error_save_and_stop) refers to app_error.o(.bss) for .bss
    app_timer.o(i.RTC1_IRQHandler) refers to app_timer.o(i.timer_timeouts_check) for timer_timeouts_check
    app_timer.o(i.SWI0_IRQHandler) refers to app_timer.o(i.timer_list_handler) for timer_list_handler
    app_timer.o(i.app_timer_create) refers to app_timer.o(.data) for .data
    app_timer.o(i.app_timer_init) refers to app_timer.o(i.rtc1_stop) for rtc1_stop
    app_timer.o(i.app_timer_init) refers to app_timer.o(i.NVIC_SetPriority) for NVIC_SetPriority
    app_timer.o(i.app_timer_init) refers to app_timer.o(.data) for .data
    app_timer.o(i.app_timer_start) refers to app_util_platform.o(i.app_util_critical_region_enter) for app_util_critical_region_enter
    app_timer.o(i.app_timer_start) refers to app_timer.o(i.user_op_alloc) for user_op_alloc
    app_timer.o(i.app_timer_start) refers to app_util_platform.o(i.app_util_critical_region_exit) for app_util_critical_region_exit
    app_timer.o(i.app_timer_start) refers to app_timer.o(i.timer_list_handler_sched) for timer_list_handler_sched
    app_timer.o(i.app_timer_start) refers to app_timer.o(.data) for .data
    app_timer.o(i.app_timer_stop) refers to app_timer.o(i.timer_stop_op_schedule) for timer_stop_op_schedule
    app_timer.o(i.app_timer_stop) refers to app_timer.o(.data) for .data
    app_timer.o(i.app_timer_stop_all) refers to app_timer.o(i.timer_stop_op_schedule) for timer_stop_op_schedule
    app_timer.o(i.app_timer_stop_all) refers to app_timer.o(.data) for .data
    app_timer.o(i.compare_reg_update) refers to app_timer.o(i.nrf_delay_us) for nrf_delay_us
    app_timer.o(i.compare_reg_update) refers to app_timer.o(i.rtc1_stop) for rtc1_stop
    app_timer.o(i.compare_reg_update) refers to app_timer.o(.data) for .data
    app_timer.o(i.elapsed_ticks_acquire) refers to app_timer.o(.data) for .data
    app_timer.o(i.list_deletions_handler) refers to app_timer.o(.data) for .data
    app_timer.o(i.list_insertions_handler) refers to app_timer.o(i.timer_list_insert) for timer_list_insert
    app_timer.o(i.list_insertions_handler) refers to app_timer.o(.data) for .data
    app_timer.o(i.nrf_delay_us) refers to system_nrf51.o(.data) for SystemCoreClock
    app_timer.o(i.rtc1_stop) refers to app_timer.o(i.nrf_delay_us) for nrf_delay_us
    app_timer.o(i.rtc1_stop) refers to app_timer.o(.data) for .data
    app_timer.o(i.timer_list_handler) refers to app_timer.o(i.elapsed_ticks_acquire) for elapsed_ticks_acquire
    app_timer.o(i.timer_list_handler) refers to app_timer.o(i.list_deletions_handler) for list_deletions_handler
    app_timer.o(i.timer_list_handler) refers to app_timer.o(i.list_insertions_handler) for list_insertions_handler
    app_timer.o(i.timer_list_handler) refers to app_timer.o(i.compare_reg_update) for compare_reg_update
    app_timer.o(i.timer_list_handler) refers to app_timer.o(.data) for .data
    app_timer.o(i.timer_list_insert) refers to app_timer.o(.data) for .data
    app_timer.o(i.timer_stop_op_schedule) refers to app_util_platform.o(i.app_util_critical_region_enter) for app_util_critical_region_enter
    app_timer.o(i.timer_stop_op_schedule) refers to app_timer.o(i.user_op_alloc) for user_op_alloc
    app_timer.o(i.timer_stop_op_schedule) refers to app_util_platform.o(i.app_util_critical_region_exit) for app_util_critical_region_exit
    app_timer.o(i.timer_stop_op_schedule) refers to app_timer.o(i.timer_list_handler_sched) for timer_list_handler_sched
    app_timer.o(i.timer_stop_op_schedule) refers to app_timer.o(.data) for .data
    app_timer.o(i.timer_timeouts_check) refers to app_error.o(i.app_error_handler_bare) for app_error_handler_bare
    app_timer.o(i.timer_timeouts_check) refers to app_timer.o(i.timer_list_handler_sched) for timer_list_handler_sched
    app_timer.o(i.timer_timeouts_check) refers to app_timer.o(.data) for .data
    app_timer.o(i.user_op_alloc) refers to app_timer.o(.data) for .data
    app_util_platform.o(i.app_util_critical_region_enter) refers to app_util_platform.o(.data) for .data
    app_util_platform.o(i.app_util_critical_region_exit) refers to app_util_platform.o(.data) for .data
    app_util_platform.o(i.app_util_disable_irq) refers to app_util_platform.o(.data) for .data
    app_util_platform.o(i.app_util_enable_irq) refers to app_util_platform.o(.data) for .data
    fds.o(i.chunk_queue_next) refers to fds.o(.bss) for .bss
    fds.o(i.delete_execute) refers to fds.o(i.record_find_by_desc) for record_find_by_desc
    fds.o(i.delete_execute) refers to fds.o(i.record_header_flag_dirty) for record_header_flag_dirty
    fds.o(i.delete_execute) refers to fds.o(i.record_find) for record_find
    fds.o(i.delete_execute) refers to fds.o(.data) for .data
    fds.o(i.event_prepare) refers to main.o(i.__ARM_common_switch8) for __ARM_common_switch8
    fds.o(i.event_send) refers to fds.o(.bss) for .bss
    fds.o(i.fds_file_delete) refers to fds.o(i.op_enqueue) for op_enqueue
    fds.o(i.fds_file_delete) refers to fds.o(i.queue_start) for queue_start
    fds.o(i.fds_file_delete) refers to fds.o(.data) for .data
    fds.o(i.fds_gc) refers to fds.o(i.op_enqueue) for op_enqueue
    fds.o(i.fds_gc) refers to fds.o(i.queue_start) for queue_start
    fds.o(i.fds_gc) refers to fds.o(.data) for .data
    fds.o(i.fds_gc) refers to fds.o(.bss) for .bss
    fds.o(i.fds_init) refers to memseta.o(.text) for __aeabi_memclr4
    fds.o(i.fds_init) refers to fds.o(i.event_send) for event_send
    fds.o(i.fds_init) refers to fds.o(i.flag_set) for flag_set
    fds.o(i.fds_init) refers to fstorage.o(i.fs_init) for fs_init
    fds.o(i.fds_init) refers to fds.o(i.pages_init) for pages_init
    fds.o(i.fds_init) refers to main.o(i.__ARM_common_switch8) for __ARM_common_switch8
    fds.o(i.fds_init) refers to fds.o(i.flag_clear) for flag_clear
    fds.o(i.fds_init) refers to fds.o(i.op_enqueue) for op_enqueue
    fds.o(i.fds_init) refers to fds.o(i.queue_start) for queue_start
    fds.o(i.fds_init) refers to fds.o(.data) for .data
    fds.o(i.fds_record_close) refers to fds.o(i.record_find_by_desc) for record_find_by_desc
    fds.o(i.fds_record_close) refers to fds.o(.bss) for .bss
    fds.o(i.fds_record_delete) refers to fds.o(i.op_enqueue) for op_enqueue
    fds.o(i.fds_record_delete) refers to fds.o(i.queue_start) for queue_start
    fds.o(i.fds_record_delete) refers to fds.o(.data) for .data
    fds.o(i.fds_record_find) refers to fds.o(i.record_find) for record_find
    fds.o(i.fds_record_find_by_key) refers to fds.o(i.record_find) for record_find
    fds.o(i.fds_record_find_in_file) refers to fds.o(i.record_find) for record_find
    fds.o(i.fds_record_iterate) refers to fds.o(i.record_find) for record_find
    fds.o(i.fds_record_open) refers to fds.o(i.record_find_by_desc) for record_find_by_desc
    fds.o(i.fds_record_open) refers to fds.o(.bss) for .bss
    fds.o(i.fds_record_update) refers to fds.o(i.write_enqueue) for write_enqueue
    fds.o(i.fds_record_write) refers to fds.o(i.write_enqueue) for write_enqueue
    fds.o(i.fds_record_write_reserved) refers to fds.o(i.write_enqueue) for write_enqueue
    fds.o(i.fds_register) refers to fds.o(.data) for .data
    fds.o(i.fds_register) refers to fds.o(.bss) for .bss
    fds.o(i.fds_reserve) refers to fds.o(i.write_space_reserve) for write_space_reserve
    fds.o(i.fds_reserve) refers to fds.o(.data) for .data
    fds.o(i.fds_reserve_cancel) refers to fds.o(i.write_space_free) for write_space_free
    fds.o(i.fds_reserve_cancel) refers to fds.o(.data) for .data
    fds.o(i.fds_reserve_cancel) refers to fds.o(.bss) for .bss
    fds.o(i.fds_stat) refers to memseta.o(.text) for __aeabi_memclr
    fds.o(i.fds_stat) refers to fds.o(i.record_find_next) for record_find_next
    fds.o(i.fds_stat) refers to fds.o(i.header_is_valid) for header_is_valid
    fds.o(i.fds_stat) refers to fds.o(.data) for .data
    fds.o(i.fds_stat) refers to fds.o(.bss) for .bss
    fds.o(i.flag_clear) refers to fds.o(.data) for .data
    fds.o(i.flag_set) refers to fds.o(.data) for .data
    fds.o(i.fs_event_handler) refers to fds.o(i.queue_process) for queue_process
    fds.o(i.gc_execute) refers to fds.o(i.gc_state_advance) for gc_state_advance
    fds.o(i.gc_execute) refers to main.o(i.__ARM_common_switch8) for __ARM_common_switch8
    fds.o(i.gc_execute) refers to fds.o(i.gc_next_page) for gc_next_page
    fds.o(i.gc_execute) refers to fds.o(i.gc_record_find_next) for gc_record_find_next
    fds.o(i.gc_execute) refers to fds.o(i.gc_record_copy) for gc_record_copy
    fds.o(i.gc_execute) refers to fds.o(i.gc_page_erase) for gc_page_erase
    fds.o(i.gc_execute) refers to fds.o(i.page_tag_write_data) for page_tag_write_data
    fds.o(i.gc_execute) refers to fds.o(i.page_tag_write_swap) for page_tag_write_swap
    fds.o(i.gc_execute) refers to fds.o(.bss) for .bss
    fds.o(i.gc_next_page) refers to fds.o(i.gc_record_find_next) for gc_record_find_next
    fds.o(i.gc_next_page) refers to fds.o(.bss) for .bss
    fds.o(i.gc_page_erase) refers to fstorage.o(i.fs_erase) for fs_erase
    fds.o(i.gc_page_erase) refers to fds.o(.bss) for .bss
    fds.o(i.gc_page_erase) refers to fds.o(.data) for .data
    fds.o(i.gc_page_erase) refers to fds.o(fs_data) for fs_data
    fds.o(i.gc_record_copy) refers to fstorage.o(i.fs_store) for fs_store
    fds.o(i.gc_record_copy) refers to fds.o(.bss) for .bss
    fds.o(i.gc_record_copy) refers to fds.o(.data) for .data
    fds.o(i.gc_record_copy) refers to fds.o(fs_data) for fs_data
    fds.o(i.gc_record_find_next) refers to fds.o(i.record_find_next) for record_find_next
    fds.o(i.gc_record_find_next) refers to fds.o(i.gc_record_copy) for gc_record_copy
    fds.o(i.gc_record_find_next) refers to fds.o(i.gc_page_erase) for gc_page_erase
    fds.o(i.gc_record_find_next) refers to fds.o(.bss) for .bss
    fds.o(i.gc_state_advance) refers to main.o(i.__ARM_common_switch8) for __ARM_common_switch8
    fds.o(i.gc_state_advance) refers to fds.o(.bss) for .bss
    fds.o(i.gc_state_advance) refers to fds.o(.data) for .data
    fds.o(i.init_execute) refers to fds.o(i.flag_clear) for flag_clear
    fds.o(i.init_execute) refers to fds.o(i.page_tag_write_swap) for page_tag_write_swap
    fds.o(i.init_execute) refers to fds.o(i.flag_set) for flag_set
    fds.o(i.init_execute) refers to fds.o(i.page_tag_write_data) for page_tag_write_data
    fds.o(i.init_execute) refers to fstorage.o(i.fs_erase) for fs_erase
    fds.o(i.init_execute) refers to fds.o(.bss) for .bss
    fds.o(i.init_execute) refers to fds.o(.data) for .data
    fds.o(i.init_execute) refers to fds.o(fs_data) for fs_data
    fds.o(i.op_enqueue) refers to memmovea.o(.text) for __aeabi_memcpy4
    fds.o(i.op_enqueue) refers to fds.o(i.chunk_queue_next) for chunk_queue_next
    fds.o(i.op_enqueue) refers to fds.o(.bss) for .bss
    fds.o(i.page_scan) refers to fds.o(i.header_is_valid) for header_is_valid
    fds.o(i.page_scan) refers to fds.o(.data) for .data
    fds.o(i.page_tag_write_data) refers to fstorage.o(i.fs_store) for fs_store
    fds.o(i.page_tag_write_data) refers to fds.o(.constdata) for .constdata
    fds.o(i.page_tag_write_data) refers to fds.o(fs_data) for fs_data
    fds.o(i.page_tag_write_swap) refers to fstorage.o(i.fs_store) for fs_store
    fds.o(i.page_tag_write_swap) refers to fds.o(.data) for .data
    fds.o(i.page_tag_write_swap) refers to fds.o(.constdata) for .constdata
    fds.o(i.page_tag_write_swap) refers to fds.o(fs_data) for fs_data
    fds.o(i.pages_init) refers to fds.o(i.page_scan) for page_scan
    fds.o(i.pages_init) refers to fds.o(fs_data) for fs_data
    fds.o(i.pages_init) refers to fds.o(.bss) for .bss
    fds.o(i.pages_init) refers to fds.o(.data) for .data
    fds.o(i.queue_process) refers to main.o(i.__ARM_common_switch8) for __ARM_common_switch8
    fds.o(i.queue_process) refers to fds.o(i.init_execute) for init_execute
    fds.o(i.queue_process) refers to fds.o(i.write_execute) for write_execute
    fds.o(i.queue_process) refers to fds.o(i.delete_execute) for delete_execute
    fds.o(i.queue_process) refers to fds.o(i.gc_execute) for gc_execute
    fds.o(i.queue_process) refers to fds.o(i.event_prepare) for event_prepare
    fds.o(i.queue_process) refers to fds.o(i.event_send) for event_send
    fds.o(i.queue_process) refers to memseta.o(.text) for __aeabi_memclr4
    fds.o(i.queue_process) refers to fds.o(i.flag_clear) for flag_clear
    fds.o(i.queue_process) refers to fds.o(.bss) for .bss
    fds.o(i.queue_start) refers to fds.o(i.flag_set) for flag_set
    fds.o(i.queue_start) refers to fds.o(i.queue_process) for queue_process
    fds.o(i.queue_start) refers to fds.o(.data) for .data
    fds.o(i.record_find) refers to fds.o(i.record_find_next) for record_find_next
    fds.o(i.record_find) refers to fds.o(.data) for .data
    fds.o(i.record_find) refers to fds.o(.bss) for .bss
    fds.o(i.record_find_by_desc) refers to fds.o(i.is_word_aligned) for is_word_aligned
    fds.o(i.record_find_by_desc) refers to fds.o(i.record_find_next) for record_find_next
    fds.o(i.record_find_by_desc) refers to fds.o(.bss) for .bss
    fds.o(i.record_find_by_desc) refers to fds.o(fs_data) for fs_data
    fds.o(i.record_find_next) refers to fds.o(i.header_is_valid) for header_is_valid
    fds.o(i.record_find_next) refers to fds.o(.bss) for .bss
    fds.o(i.record_header_flag_dirty) refers to fstorage.o(i.fs_store) for fs_store
    fds.o(i.record_header_flag_dirty) refers to fds.o(.constdata) for .constdata
    fds.o(i.record_header_flag_dirty) refers to fds.o(fs_data) for fs_data
    fds.o(i.record_header_flag_dirty) refers to fds.o(.bss) for .bss
    fds.o(i.record_write_chunk) refers to fstorage.o(i.fs_store) for fs_store
    fds.o(i.record_write_chunk) refers to fds.o(.bss) for .bss
    fds.o(i.record_write_chunk) refers to fds.o(fs_data) for fs_data
    fds.o(i.write_enqueue) refers to fds.o(i.is_word_aligned) for is_word_aligned
    fds.o(i.write_enqueue) refers to fds.o(i.write_space_reserve) for write_space_reserve
    fds.o(i.write_enqueue) refers to fds.o(i.op_enqueue) for op_enqueue
    fds.o(i.write_enqueue) refers to fds.o(i.queue_start) for queue_start
    fds.o(i.write_enqueue) refers to fds.o(i.write_space_free) for write_space_free
    fds.o(i.write_enqueue) refers to fds.o(.data) for .data
    fds.o(i.write_enqueue) refers to fds.o(.bss) for .bss
    fds.o(i.write_execute) refers to fds.o(i.page_offsets_update) for page_offsets_update
    fds.o(i.write_execute) refers to main.o(i.__ARM_common_switch8) for __ARM_common_switch8
    fds.o(i.write_execute) refers to fds.o(i.record_find_by_desc) for record_find_by_desc
    fds.o(i.write_execute) refers to fstorage.o(i.fs_store) for fs_store
    fds.o(i.write_execute) refers to fds.o(i.record_write_chunk) for record_write_chunk
    fds.o(i.write_execute) refers to fds.o(i.record_header_flag_dirty) for record_header_flag_dirty
    fds.o(i.write_execute) refers to fds.o(.bss) for .bss
    fds.o(i.write_execute) refers to fds.o(.data) for .data
    fds.o(i.write_execute) refers to fds.o(fs_data) for fs_data
    fds.o(i.write_space_free) refers to fds.o(.bss) for .bss
    fds.o(i.write_space_reserve) refers to fds.o(.bss) for .bss
    fds.o(fs_data) refers to fds.o(i.fs_event_handler) for fs_event_handler
    fstorage.o(i.fs_erase) refers to fstorage.o(i.check_config) for check_config
    fstorage.o(i.fs_erase) refers to fstorage.o(i.queue_get_next_free) for queue_get_next_free
    fstorage.o(i.fs_erase) refers to fstorage.o(i.queue_start) for queue_start
    fstorage.o(i.fs_erase) refers to fstorage.o(.data) for .data
    fstorage.o(i.fs_fake_init) refers to fstorage.o(.data) for .data
    fstorage.o(i.fs_init) refers to fstorage.o(.data) for .data
    fstorage.o(i.fs_queue_is_empty) refers to fstorage.o(.bss) for .bss
    fstorage.o(i.fs_queue_is_full) refers to fstorage.o(.bss) for .bss
    fstorage.o(i.fs_queued_op_count_get) refers to fstorage.o(.bss) for .bss
    fstorage.o(i.fs_store) refers to fstorage.o(i.check_config) for check_config
    fstorage.o(i.fs_store) refers to fstorage.o(i.queue_get_next_free) for queue_get_next_free
    fstorage.o(i.fs_store) refers to fstorage.o(i.queue_start) for queue_start
    fstorage.o(i.fs_store) refers to fstorage.o(.data) for .data
    fstorage.o(i.fs_sys_event_handler) refers to fstorage.o(i.on_operation_success) for on_operation_success
    fstorage.o(i.fs_sys_event_handler) refers to fstorage.o(i.send_event) for send_event
    fstorage.o(i.fs_sys_event_handler) refers to fstorage.o(i.queue_advance) for queue_advance
    fstorage.o(i.fs_sys_event_handler) refers to fstorage.o(i.queue_process) for queue_process
    fstorage.o(i.fs_sys_event_handler) refers to fstorage.o(.bss) for .bss
    fstorage.o(i.fs_sys_event_handler) refers to fstorage.o(.data) for .data
    fstorage.o(i.on_operation_success) refers to fstorage.o(i.send_event) for send_event
    fstorage.o(i.on_operation_success) refers to fstorage.o(i.queue_advance) for queue_advance
    fstorage.o(i.on_operation_success) refers to fstorage.o(.data) for .data
    fstorage.o(i.queue_advance) refers to fstorage.o(.bss) for .bss
    fstorage.o(i.queue_advance) refers to fstorage.o(.data) for .data
    fstorage.o(i.queue_get_next_free) refers to memseta.o(.text) for __aeabi_memclr4
    fstorage.o(i.queue_get_next_free) refers to fstorage.o(.bss) for .bss
    fstorage.o(i.queue_process) refers to fstorage.o(i.send_event) for send_event
    fstorage.o(i.queue_process) refers to fstorage.o(.bss) for .bss
    fstorage.o(i.queue_process) refers to fstorage.o(.data) for .data
    fstorage.o(i.queue_start) refers to fstorage.o(i.queue_process) for queue_process
    fstorage.o(i.queue_start) refers to fstorage.o(.data) for .data
    nrf_assert.o(i.assert_nrf_callback) refers to app_error_weak.o(i.app_error_fault_handler) for app_error_fault_handler
    sdk_mapped_flags.o(i.sdk_mapped_flags_first_key_index_get) refers to sdk_mapped_flags.o(i.sdk_mapped_flags_get_by_index) for sdk_mapped_flags_get_by_index
    sdk_mapped_flags.o(i.sdk_mapped_flags_get_by_key) refers to sdk_mapped_flags.o(i.sdk_mapped_flags_get_by_index) for sdk_mapped_flags_get_by_index
    sdk_mapped_flags.o(i.sdk_mapped_flags_key_list_get) refers to sdk_mapped_flags.o(i.sdk_mapped_flags_get_by_index) for sdk_mapped_flags_get_by_index
    sdk_mapped_flags.o(i.sdk_mapped_flags_key_list_get) refers to memmovea.o(.text) for __aeabi_memcpy4
    sdk_mapped_flags.o(i.sdk_mapped_flags_n_flags_set) refers to sdk_mapped_flags.o(i.sdk_mapped_flags_get_by_index) for sdk_mapped_flags_get_by_index
    sdk_mapped_flags.o(i.sdk_mapped_flags_update_by_key) refers to sdk_mapped_flags.o(i.sdk_mapped_flags_bulk_update_by_key) for sdk_mapped_flags_bulk_update_by_key
    sensorsim.o(i.sensorsim_measure) refers to sensorsim.o(i.sensorsim_increment) for sensorsim_increment
    sensorsim.o(i.sensorsim_measure) refers to sensorsim.o(i.sensorsim_decrement) for sensorsim_decrement
    segger_rtt.o(i.SEGGER_RTT_ConfigDownBuffer) refers to segger_rtt.o(i._DoInit) for _DoInit
    segger_rtt.o(i.SEGGER_RTT_ConfigDownBuffer) refers to app_util_platform.o(i.app_util_critical_region_enter) for app_util_critical_region_enter
    segger_rtt.o(i.SEGGER_RTT_ConfigDownBuffer) refers to app_util_platform.o(i.app_util_critical_region_exit) for app_util_critical_region_exit
    segger_rtt.o(i.SEGGER_RTT_ConfigDownBuffer) refers to segger_rtt.o(.bss) for .bss
    segger_rtt.o(i.SEGGER_RTT_ConfigUpBuffer) refers to segger_rtt.o(i._DoInit) for _DoInit
    segger_rtt.o(i.SEGGER_RTT_ConfigUpBuffer) refers to app_util_platform.o(i.app_util_critical_region_enter) for app_util_critical_region_enter
    segger_rtt.o(i.SEGGER_RTT_ConfigUpBuffer) refers to app_util_platform.o(i.app_util_critical_region_exit) for app_util_critical_region_exit
    segger_rtt.o(i.SEGGER_RTT_ConfigUpBuffer) refers to segger_rtt.o(.bss) for .bss
    segger_rtt.o(i.SEGGER_RTT_GetKey) refers to segger_rtt.o(i.SEGGER_RTT_Read) for SEGGER_RTT_Read
    segger_rtt.o(i.SEGGER_RTT_HasData) refers to segger_rtt.o(.bss) for .bss
    segger_rtt.o(i.SEGGER_RTT_HasKey) refers to segger_rtt.o(i._DoInit) for _DoInit
    segger_rtt.o(i.SEGGER_RTT_HasKey) refers to segger_rtt.o(.bss) for .bss
    segger_rtt.o(i.SEGGER_RTT_Init) refers to segger_rtt.o(i._DoInit) for _DoInit
    segger_rtt.o(i.SEGGER_RTT_Init) refers to segger_rtt.o(.bss) for .bss
    segger_rtt.o(i.SEGGER_RTT_Read) refers to app_util_platform.o(i.app_util_critical_region_enter) for app_util_critical_region_enter
    segger_rtt.o(i.SEGGER_RTT_Read) refers to segger_rtt.o(i.SEGGER_RTT_ReadNoLock) for SEGGER_RTT_ReadNoLock
    segger_rtt.o(i.SEGGER_RTT_Read) refers to app_util_platform.o(i.app_util_critical_region_exit) for app_util_critical_region_exit
    segger_rtt.o(i.SEGGER_RTT_ReadNoLock) refers to segger_rtt.o(i._DoInit) for _DoInit
    segger_rtt.o(i.SEGGER_RTT_ReadNoLock) refers to memmovea.o(.text) for __aeabi_memcpy
    segger_rtt.o(i.SEGGER_RTT_ReadNoLock) refers to segger_rtt.o(.bss) for .bss
    segger_rtt.o(i.SEGGER_RTT_SetNameDownBuffer) refers to segger_rtt.o(i._DoInit) for _DoInit
    segger_rtt.o(i.SEGGER_RTT_SetNameDownBuffer) refers to app_util_platform.o(i.app_util_critical_region_enter) for app_util_critical_region_enter
    segger_rtt.o(i.SEGGER_RTT_SetNameDownBuffer) refers to app_util_platform.o(i.app_util_critical_region_exit) for app_util_critical_region_exit
    segger_rtt.o(i.SEGGER_RTT_SetNameDownBuffer) refers to segger_rtt.o(.bss) for .bss
    segger_rtt.o(i.SEGGER_RTT_SetNameUpBuffer) refers to segger_rtt.o(i._DoInit) for _DoInit
    segger_rtt.o(i.SEGGER_RTT_SetNameUpBuffer) refers to app_util_platform.o(i.app_util_critical_region_enter) for app_util_critical_region_enter
    segger_rtt.o(i.SEGGER_RTT_SetNameUpBuffer) refers to app_util_platform.o(i.app_util_critical_region_exit) for app_util_critical_region_exit
    segger_rtt.o(i.SEGGER_RTT_SetNameUpBuffer) refers to segger_rtt.o(.bss) for .bss
    segger_rtt.o(i.SEGGER_RTT_SetTerminal) refers to segger_rtt.o(i._DoInit) for _DoInit
    segger_rtt.o(i.SEGGER_RTT_SetTerminal) refers to app_util_platform.o(i.app_util_critical_region_enter) for app_util_critical_region_enter
    segger_rtt.o(i.SEGGER_RTT_SetTerminal) refers to segger_rtt.o(i._GetAvailWriteSpace) for _GetAvailWriteSpace
    segger_rtt.o(i.SEGGER_RTT_SetTerminal) refers to segger_rtt.o(i._WriteNoCheck) for _WriteNoCheck
    segger_rtt.o(i.SEGGER_RTT_SetTerminal) refers to segger_rtt.o(i._WriteBlocking) for _WriteBlocking
    segger_rtt.o(i.SEGGER_RTT_SetTerminal) refers to app_util_platform.o(i.app_util_critical_region_exit) for app_util_critical_region_exit
    segger_rtt.o(i.SEGGER_RTT_SetTerminal) refers to segger_rtt.o(.bss) for .bss
    segger_rtt.o(i.SEGGER_RTT_SetTerminal) refers to segger_rtt.o(.data) for .data
    segger_rtt.o(i.SEGGER_RTT_TerminalOut) refers to segger_rtt.o(i._DoInit) for _DoInit
    segger_rtt.o(i.SEGGER_RTT_TerminalOut) refers to strlen.o(.text) for strlen
    segger_rtt.o(i.SEGGER_RTT_TerminalOut) refers to app_util_platform.o(i.app_util_critical_region_enter) for app_util_critical_region_enter
    segger_rtt.o(i.SEGGER_RTT_TerminalOut) refers to segger_rtt.o(i._GetAvailWriteSpace) for _GetAvailWriteSpace
    segger_rtt.o(i.SEGGER_RTT_TerminalOut) refers to segger_rtt.o(i._PostTerminalSwitch) for _PostTerminalSwitch
    segger_rtt.o(i.SEGGER_RTT_TerminalOut) refers to segger_rtt.o(i._WriteBlocking) for _WriteBlocking
    segger_rtt.o(i.SEGGER_RTT_TerminalOut) refers to app_util_platform.o(i.app_util_critical_region_exit) for app_util_critical_region_exit
    segger_rtt.o(i.SEGGER_RTT_TerminalOut) refers to segger_rtt.o(.bss) for .bss
    segger_rtt.o(i.SEGGER_RTT_TerminalOut) refers to segger_rtt.o(.data) for .data
    segger_rtt.o(i.SEGGER_RTT_WaitKey) refers to segger_rtt.o(i.SEGGER_RTT_GetKey) for SEGGER_RTT_GetKey
    segger_rtt.o(i.SEGGER_RTT_Write) refers to segger_rtt.o(i._DoInit) for _DoInit
    segger_rtt.o(i.SEGGER_RTT_Write) refers to app_util_platform.o(i.app_util_critical_region_enter) for app_util_critical_region_enter
    segger_rtt.o(i.SEGGER_RTT_Write) refers to segger_rtt.o(i.SEGGER_RTT_WriteNoLock) for SEGGER_RTT_WriteNoLock
    segger_rtt.o(i.SEGGER_RTT_Write) refers to app_util_platform.o(i.app_util_critical_region_exit) for app_util_critical_region_exit
    segger_rtt.o(i.SEGGER_RTT_Write) refers to segger_rtt.o(.bss) for .bss
    segger_rtt.o(i.SEGGER_RTT_WriteNoLock) refers to segger_rtt.o(i._GetAvailWriteSpace) for _GetAvailWriteSpace
    segger_rtt.o(i.SEGGER_RTT_WriteNoLock) refers to segger_rtt.o(i._WriteNoCheck) for _WriteNoCheck
    segger_rtt.o(i.SEGGER_RTT_WriteNoLock) refers to segger_rtt.o(i._WriteBlocking) for _WriteBlocking
    segger_rtt.o(i.SEGGER_RTT_WriteNoLock) refers to segger_rtt.o(.bss) for .bss
    segger_rtt.o(i.SEGGER_RTT_WriteSkipNoLock) refers to memmovea.o(.text) for __aeabi_memcpy
    segger_rtt.o(i.SEGGER_RTT_WriteSkipNoLock) refers to segger_rtt.o(.bss) for .bss
    segger_rtt.o(i.SEGGER_RTT_WriteString) refers to strlen.o(.text) for strlen
    segger_rtt.o(i.SEGGER_RTT_WriteString) refers to segger_rtt.o(i.SEGGER_RTT_Write) for SEGGER_RTT_Write
    segger_rtt.o(i._DoInit) refers to strcpy.o(.text) for strcpy
    segger_rtt.o(i._DoInit) refers to segger_rtt.o(.bss) for .bss
    segger_rtt.o(i._PostTerminalSwitch) refers to segger_rtt.o(i._WriteBlocking) for _WriteBlocking
    segger_rtt.o(i._PostTerminalSwitch) refers to segger_rtt.o(.data) for .data
    segger_rtt.o(i._WriteBlocking) refers to memmovea.o(.text) for __aeabi_memcpy
    segger_rtt.o(i._WriteNoCheck) refers to memmovea.o(.text) for __aeabi_memcpy
    softdevice_handler.o(i.SWI2_IRQHandler) refers to app_error.o(i.app_error_handler_bare) for app_error_handler_bare
    softdevice_handler.o(i.SWI2_IRQHandler) refers to softdevice_handler.o(i.intern_softdevice_events_execute) for intern_softdevice_events_execute
    softdevice_handler.o(i.SWI2_IRQHandler) refers to softdevice_handler.o(.data) for .data
    softdevice_handler.o(i.intern_softdevice_events_execute) refers to app_error.o(i.app_error_handler_bare) for app_error_handler_bare
    softdevice_handler.o(i.intern_softdevice_events_execute) refers to nrf_drv_clock.o(i.nrf_drv_clock_on_soc_event) for nrf_drv_clock_on_soc_event
    softdevice_handler.o(i.intern_softdevice_events_execute) refers to softdevice_handler.o(.data) for .data
    softdevice_handler.o(i.sd_nvic_EnableIRQ) refers to softdevice_handler.o(i.__sd_nvic_app_accessible_irq) for __sd_nvic_app_accessible_irq
    softdevice_handler.o(i.sd_nvic_EnableIRQ) refers to app_util_platform.o(.data) for nrf_nvic_state
    softdevice_handler.o(i.softdevice_ble_evt_handler_set) refers to softdevice_handler.o(.data) for .data
    softdevice_handler.o(i.softdevice_enable_get_default_config) refers to memseta.o(.text) for __aeabi_memclr4
    softdevice_handler.o(i.softdevice_fault_handler) refers to app_error_weak.o(i.app_error_fault_handler) for app_error_fault_handler
    softdevice_handler.o(i.softdevice_handler_init) refers to nrf_drv_clock.o(i.nrf_drv_clock_on_sd_enable) for nrf_drv_clock_on_sd_enable
    softdevice_handler.o(i.softdevice_handler_init) refers to softdevice_handler.o(i.sd_nvic_EnableIRQ) for sd_nvic_EnableIRQ
    softdevice_handler.o(i.softdevice_handler_init) refers to softdevice_handler.o(.data) for .data
    softdevice_handler.o(i.softdevice_handler_init) refers to softdevice_handler.o(i.softdevice_fault_handler) for softdevice_fault_handler
    softdevice_handler.o(i.softdevice_handler_is_enabled) refers to softdevice_handler.o(.data) for .data
    softdevice_handler.o(i.softdevice_handler_is_suspended) refers to softdevice_handler.o(.data) for .data
    softdevice_handler.o(i.softdevice_handler_resume) refers to softdevice_handler.o(i.__sd_nvic_app_accessible_irq) for __sd_nvic_app_accessible_irq
    softdevice_handler.o(i.softdevice_handler_resume) refers to app_error.o(i.app_error_handler_bare) for app_error_handler_bare
    softdevice_handler.o(i.softdevice_handler_resume) refers to softdevice_handler.o(i.sd_nvic_EnableIRQ) for sd_nvic_EnableIRQ
    softdevice_handler.o(i.softdevice_handler_resume) refers to softdevice_handler.o(.data) for .data
    softdevice_handler.o(i.softdevice_handler_sd_disable) refers to nrf_drv_clock.o(i.nrf_drv_clock_on_sd_disable) for nrf_drv_clock_on_sd_disable
    softdevice_handler.o(i.softdevice_handler_sd_disable) refers to softdevice_handler.o(.data) for .data
    softdevice_handler.o(i.softdevice_handler_suspend) refers to softdevice_handler.o(i.__sd_nvic_app_accessible_irq) for __sd_nvic_app_accessible_irq
    softdevice_handler.o(i.softdevice_handler_suspend) refers to app_error.o(i.app_error_handler_bare) for app_error_handler_bare
    softdevice_handler.o(i.softdevice_handler_suspend) refers to app_util_platform.o(.data) for nrf_nvic_state
    softdevice_handler.o(i.softdevice_handler_suspend) refers to softdevice_handler.o(.data) for .data
    softdevice_handler.o(i.softdevice_sys_evt_handler_set) refers to softdevice_handler.o(.data) for .data
    arm_startup_nrf51.o(RESET) refers to arm_startup_nrf51.o(STACK) for __initial_sp
    arm_startup_nrf51.o(RESET) refers to arm_startup_nrf51.o(.text) for Reset_Handler
    arm_startup_nrf51.o(RESET) refers to nrf_drv_clock.o(i.POWER_CLOCK_IRQHandler) for POWER_CLOCK_IRQHandler
    arm_startup_nrf51.o(RESET) refers to nrf_drv_uart.o(i.UART0_IRQHandler) for UART0_IRQHandler
    arm_startup_nrf51.o(RESET) refers to nrf_drv_gpiote.o(i.GPIOTE_IRQHandler) for GPIOTE_IRQHandler
    arm_startup_nrf51.o(RESET) refers to app_timer.o(i.RTC1_IRQHandler) for RTC1_IRQHandler
    arm_startup_nrf51.o(RESET) refers to app_timer.o(i.SWI0_IRQHandler) for SWI0_IRQHandler
    arm_startup_nrf51.o(RESET) refers to softdevice_handler.o(i.SWI2_IRQHandler) for SWI2_IRQHandler
    arm_startup_nrf51.o(.text) refers to system_nrf51.o(i.SystemInit) for SystemInit
    arm_startup_nrf51.o(.text) refers to entry.o(.ARM.Collect$$$$00000000) for __main
    system_nrf51.o(i.SystemCoreClockUpdate) refers to system_nrf51.o(.data) for .data
    system_nrf51.o(i.SystemInit) refers to system_nrf51.o(i.is_manual_peripheral_setup_needed) for is_manual_peripheral_setup_needed
    entry.o(.ARM.Collect$$$$00000000) refers (Special) to entry10a.o(.ARM.Collect$$$$0000000D) for __rt_final_cpp
    entry.o(.ARM.Collect$$$$00000000) refers (Special) to entry11a.o(.ARM.Collect$$$$0000000F) for __rt_final_exit
    entry.o(.ARM.Collect$$$$00000000) refers (Special) to entry7b.o(.ARM.Collect$$$$00000008) for _main_clock
    entry.o(.ARM.Collect$$$$00000000) refers (Special) to entry8b.o(.ARM.Collect$$$$0000000A) for _main_cpp_init
    entry.o(.ARM.Collect$$$$00000000) refers (Special) to entry9a.o(.ARM.Collect$$$$0000000B) for _main_init
    entry.o(.ARM.Collect$$$$00000000) refers (Special) to entry5.o(.ARM.Collect$$$$00000004) for _main_scatterload
    entry.o(.ARM.Collect$$$$00000000) refers (Special) to entry2.o(.ARM.Collect$$$$00000001) for _main_stk
    entry2.o(.ARM.Collect$$$$00000001) refers to entry2.o(.ARM.Collect$$$$00002712) for __lit__00000000
    entry2.o(.ARM.Collect$$$$00002712) refers to arm_startup_nrf51.o(STACK) for __initial_sp
    entry2.o(__vectab_stack_and_reset_area) refers to arm_startup_nrf51.o(STACK) for __initial_sp
    entry2.o(__vectab_stack_and_reset_area) refers to entry.o(.ARM.Collect$$$$00000000) for __main
    entry5.o(.ARM.Collect$$$$00000004) refers to init.o(.text) for __scatterload
    entry9a.o(.ARM.Collect$$$$0000000B) refers to main.o(i.main) for main
    entry9b.o(.ARM.Collect$$$$0000000C) refers to main.o(i.main) for main
    init.o(.text) refers to entry5.o(.ARM.Collect$$$$00000004) for __main_after_scatterload


==============================================================================

Removing Unused input sections from the image.

    Removing main.o(.rev16_text), (4 bytes).
    Removing main.o(.revsh_text), (4 bytes).
    Removing main.o(i.assert_nrf_callback), (20 bytes).
    Removing main.o(i.bsp_event_handler), (68 bytes).
    Removing boards.o(.rev16_text), (4 bytes).
    Removing boards.o(.revsh_text), (4 bytes).
    Removing boards.o(i.bsp_board_button_state_get), (32 bytes).
    Removing boards.o(i.bsp_board_buttons_init), (36 bytes).
    Removing boards.o(i.bsp_board_led_idx_to_pin), (12 bytes).
    Removing boards.o(i.bsp_board_leds_init), (40 bytes).
    Removing boards.o(i.bsp_board_pin_to_led_idx), (36 bytes).
    Removing boards.o(i.nrf_gpio_cfg), (40 bytes).
    Removing bsp.o(.rev16_text), (4 bytes).
    Removing bsp.o(.revsh_text), (4 bytes).
    Removing bsp.o(i.alert_timer_handler), (10 bytes).
    Removing bsp.o(i.bsp_button_is_pressed), (8 bytes).
    Removing bsp.o(i.bsp_buttons_disable), (8 bytes).
    Removing bsp.o(i.bsp_buttons_enable), (8 bytes).
    Removing bsp.o(i.bsp_init), (152 bytes).
    Removing bsp.o(i.bsp_wakeup_button_disable), (16 bytes).
    Removing bsp.o(i.button_timer_handler), (12 bytes).
    Removing bsp.o(i.leds_timer_handler), (24 bytes).
    Removing bsp_btn_ble.o(.rev16_text), (4 bytes).
    Removing bsp_btn_ble.o(.revsh_text), (4 bytes).
    Removing bsp_btn_ble.o(i.bsp_btn_ble_init), (64 bytes).
    Removing bsp_nfc.o(.rev16_text), (4 bytes).
    Removing bsp_nfc.o(.revsh_text), (4 bytes).
    Removing bsp_nfc.o(i.bsp_nfc_btn_deinit), (12 bytes).
    Removing bsp_nfc.o(i.bsp_nfc_btn_init), (12 bytes).
    Removing bsp_nfc.o(i.bsp_nfc_sleep_mode_prepare), (4 bytes).
    Removing ble_advdata.o(.rev16_text), (4 bytes).
    Removing ble_advdata.o(.revsh_text), (4 bytes).
    Removing ble_advertising.o(.rev16_text), (4 bytes).
    Removing ble_advertising.o(.revsh_text), (4 bytes).
    Removing ble_advertising.o(i.ble_advertising_peer_addr_reply), (40 bytes).
    Removing ble_advertising.o(i.ble_advertising_restart_without_whitelist), (60 bytes).
    Removing ble_advertising.o(i.ble_advertising_whitelist_reply), (100 bytes).
    Removing ble_conn_params.o(.rev16_text), (4 bytes).
    Removing ble_conn_params.o(.revsh_text), (4 bytes).
    Removing ble_conn_params.o(i.ble_conn_params_change_conn_params), (80 bytes).
    Removing ble_conn_params.o(i.ble_conn_params_stop), (16 bytes).
    Removing ble_conn_state.o(.rev16_text), (4 bytes).
    Removing ble_conn_state.o(.revsh_text), (4 bytes).
    Removing ble_conn_state.o(i.bcs_internal_state_reset), (16 bytes).
    Removing ble_conn_state.o(i.ble_conn_state_central_handles), (24 bytes).
    Removing ble_conn_state.o(i.ble_conn_state_init), (8 bytes).
    Removing ble_conn_state.o(i.ble_conn_state_n_centrals), (20 bytes).
    Removing ble_conn_state.o(i.ble_conn_state_n_connections), (16 bytes).
    Removing ble_conn_state.o(i.ble_conn_state_n_peripherals), (20 bytes).
    Removing ble_conn_state.o(i.ble_conn_state_periph_handles), (24 bytes).
    Removing ble_conn_state.o(i.ble_conn_state_status), (52 bytes).
    Removing ble_conn_state.o(i.ble_conn_state_valid), (20 bytes).
    Removing ble_srv_common.o(.rev16_text), (4 bytes).
    Removing ble_srv_common.o(.revsh_text), (4 bytes).
    Removing ble_srv_common.o(i.ble_srv_is_indication_enabled), (14 bytes).
    Removing ble_srv_common.o(i.characteristic_add), (404 bytes).
    Removing ble_srv_common.o(i.descriptor_add), (176 bytes).
    Removing ble_srv_common.o(i.set_security_req), (46 bytes).
    Removing gatt_cache_manager.o(.rev16_text), (4 bytes).
    Removing gatt_cache_manager.o(.revsh_text), (4 bytes).
    Removing gatt_cache_manager.o(i.gcm_local_db_cache_set), (8 bytes).
    Removing gatt_cache_manager.o(i.gcm_local_db_cache_update), (40 bytes).
    Removing gatts_cache_manager.o(.rev16_text), (4 bytes).
    Removing gatts_cache_manager.o(.revsh_text), (4 bytes).
    Removing gatts_cache_manager.o(i.gscm_local_db_cache_set), (24 bytes).
    Removing id_manager.o(.rev16_text), (4 bytes).
    Removing id_manager.o(.revsh_text), (4 bytes).
    Removing id_manager.o(i.address_set_v2), (36 bytes).
    Removing id_manager.o(i.im_device_identities_list_set), (4 bytes).
    Removing id_manager.o(i.im_id_addr_get), (20 bytes).
    Removing id_manager.o(i.im_id_addr_set), (64 bytes).
    Removing id_manager.o(i.im_privacy_get), (58 bytes).
    Removing id_manager.o(i.im_privacy_set), (80 bytes).
    Removing id_manager.o(i.im_whitelist_get), (56 bytes).
    Removing id_manager.o(i.im_whitelist_set), (56 bytes).
    Removing id_manager.o(i.peers_id_keys_get), (184 bytes).
    Removing nrf_ble_gatt.o(.rev16_text), (4 bytes).
    Removing nrf_ble_gatt.o(.revsh_text), (4 bytes).
    Removing nrf_ble_gatt.o(i.nrf_ble_gatt_att_mtu_central_set), (4 bytes).
    Removing nrf_ble_gatt.o(i.nrf_ble_gatt_att_mtu_periph_set), (4 bytes).
    Removing nrf_ble_gatt.o(i.nrf_ble_gatt_eff_mtu_get), (4 bytes).
    Removing peer_data.o(.rev16_text), (4 bytes).
    Removing peer_data.o(.revsh_text), (4 bytes).
    Removing peer_data.o(i.peer_data_deserialize), (52 bytes).
    Removing peer_data.o(i.peer_data_parts_get), (30 bytes).
    Removing peer_data_storage.o(.rev16_text), (4 bytes).
    Removing peer_data_storage.o(.revsh_text), (4 bytes).
    Removing peer_data_storage.o(i.pds_peer_count_get), (8 bytes).
    Removing peer_data_storage.o(i.pds_peer_data_delete), (64 bytes).
    Removing peer_database.o(.rev16_text), (4 bytes).
    Removing peer_database.o(.revsh_text), (4 bytes).
    Removing peer_database.o(i.pdb_clear), (8 bytes).
    Removing peer_database.o(i.pdb_n_peers), (8 bytes).
    Removing peer_database.o(i.pdb_peer_data_load), (16 bytes).
    Removing peer_id.o(.rev16_text), (4 bytes).
    Removing peer_id.o(.revsh_text), (4 bytes).
    Removing peer_id.o(i.peer_id_n_ids), (32 bytes).
    Removing peer_manager.o(.rev16_text), (4 bytes).
    Removing peer_manager.o(.revsh_text), (4 bytes).
    Removing peer_manager.o(i.pm_conn_handle_get), (40 bytes).
    Removing peer_manager.o(i.pm_conn_sec_status_get), (128 bytes).
    Removing peer_manager.o(i.pm_conn_secure), (24 bytes).
    Removing peer_manager.o(i.pm_device_identities_list_set), (24 bytes).
    Removing peer_manager.o(i.pm_id_addr_get), (32 bytes).
    Removing peer_manager.o(i.pm_id_addr_set), (24 bytes).
    Removing peer_manager.o(i.pm_lesc_public_key_set), (24 bytes).
    Removing peer_manager.o(i.pm_next_peer_id_get), (28 bytes).
    Removing peer_manager.o(i.pm_peer_count), (20 bytes).
    Removing peer_manager.o(i.pm_peer_data_app_data_load), (14 bytes).
    Removing peer_manager.o(i.pm_peer_data_app_data_store), (16 bytes).
    Removing peer_manager.o(i.pm_peer_data_bonding_load), (18 bytes).
    Removing peer_manager.o(i.pm_peer_data_bonding_store), (16 bytes).
    Removing peer_manager.o(i.pm_peer_data_delete), (32 bytes).
    Removing peer_manager.o(i.pm_peer_data_load), (96 bytes).
    Removing peer_manager.o(i.pm_peer_data_remote_db_load), (14 bytes).
    Removing peer_manager.o(i.pm_peer_data_remote_db_store), (16 bytes).
    Removing peer_manager.o(i.pm_peer_data_store), (80 bytes).
    Removing peer_manager.o(i.pm_peer_id_get), (40 bytes).
    Removing peer_manager.o(i.pm_peer_new), (152 bytes).
    Removing peer_manager.o(i.pm_peer_rank_highest), (192 bytes).
    Removing peer_manager.o(i.pm_peer_ranks_get), (176 bytes).
    Removing peer_manager.o(i.pm_privacy_get), (40 bytes).
    Removing peer_manager.o(i.pm_privacy_set), (32 bytes).
    Removing peer_manager.o(i.pm_sec_params_reply), (20 bytes).
    Removing peer_manager.o(i.pm_whitelist_get), (52 bytes).
    Removing peer_manager.o(i.pm_whitelist_set), (24 bytes).
    Removing peer_manager.o(.constdata), (16 bytes).
    Removing pm_buffer.o(.rev16_text), (4 bytes).
    Removing pm_buffer.o(.revsh_text), (4 bytes).
    Removing pm_mutex.o(.rev16_text), (4 bytes).
    Removing pm_mutex.o(.revsh_text), (4 bytes).
    Removing security_dispatcher.o(.rev16_text), (4 bytes).
    Removing security_dispatcher.o(.revsh_text), (4 bytes).
    Removing security_manager.o(.rev16_text), (4 bytes).
    Removing security_manager.o(.revsh_text), (4 bytes).
    Removing security_manager.o(i.sm_lesc_public_key_set), (12 bytes).
    Removing security_manager.o(i.sm_link_secure), (14 bytes).
    Removing security_manager.o(i.sm_sec_params_reply), (4 bytes).
    Removing ble_bas.o(.rev16_text), (4 bytes).
    Removing ble_bas.o(.revsh_text), (4 bytes).
    Removing ble_dis.o(.rev16_text), (4 bytes).
    Removing ble_dis.o(.revsh_text), (4 bytes).
    Removing ble_hrs.o(.rev16_text), (4 bytes).
    Removing ble_hrs.o(.revsh_text), (4 bytes).
    Removing ble_hrs.o(i.ble_hrs_body_sensor_location_set), (30 bytes).
    Removing ble_hrs.o(i.ble_hrs_rr_interval_buffer_is_full), (16 bytes).
    Removing ble_hrs.o(i.ble_hrs_sensor_contact_supported_set), (24 bytes).
    Removing nrf_drv_clock.o(.rev16_text), (4 bytes).
    Removing nrf_drv_clock.o(.revsh_text), (4 bytes).
    Removing nrf_drv_clock.o(i.hfclk_stop), (44 bytes).
    Removing nrf_drv_clock.o(i.item_enqueue), (22 bytes).
    Removing nrf_drv_clock.o(i.lfclk_stop), (36 bytes).
    Removing nrf_drv_clock.o(i.nrf_clock_hf_is_running), (32 bytes).
    Removing nrf_drv_clock.o(i.nrf_drv_clock_calibration_abort), (4 bytes).
    Removing nrf_drv_clock.o(i.nrf_drv_clock_calibration_start), (4 bytes).
    Removing nrf_drv_clock.o(i.nrf_drv_clock_hfclk_is_running), (32 bytes).
    Removing nrf_drv_clock.o(i.nrf_drv_clock_hfclk_release), (48 bytes).
    Removing nrf_drv_clock.o(i.nrf_drv_clock_hfclk_request), (120 bytes).
    Removing nrf_drv_clock.o(i.nrf_drv_clock_init_check), (12 bytes).
    Removing nrf_drv_clock.o(i.nrf_drv_clock_is_calibrating), (4 bytes).
    Removing nrf_drv_clock.o(i.nrf_drv_clock_lfclk_is_running), (28 bytes).
    Removing nrf_drv_clock.o(i.nrf_drv_clock_lfclk_release), (48 bytes).
    Removing nrf_drv_clock.o(i.nrf_drv_clock_lfclk_request), (108 bytes).
    Removing nrf_drv_clock.o(i.nrf_drv_clock_on_sd_disable), (16 bytes).
    Removing nrf_drv_clock.o(i.nrf_drv_clock_uninit), (40 bytes).
    Removing nrf_drv_clock.o(.constdata), (19 bytes).
    Removing nrf_drv_clock.o(.constdata), (32 bytes).
    Removing nrf_drv_clock.o(.constdata), (32 bytes).
    Removing nrf_drv_clock.o(.constdata), (29 bytes).
    Removing nrf_drv_common.o(.rev16_text), (4 bytes).
    Removing nrf_drv_common.o(.revsh_text), (4 bytes).
    Removing nrf_drv_common.o(i.nrf_drv_common_clock_irq_disable), (12 bytes).
    Removing nrf_drv_gpiote.o(.rev16_text), (4 bytes).
    Removing nrf_drv_gpiote.o(.revsh_text), (4 bytes).
    Removing nrf_drv_gpiote.o(i.nrf_drv_gpiote_in_event_addr_get), (40 bytes).
    Removing nrf_drv_gpiote.o(i.nrf_drv_gpiote_in_event_disable), (72 bytes).
    Removing nrf_drv_gpiote.o(i.nrf_drv_gpiote_in_is_set), (20 bytes).
    Removing nrf_drv_gpiote.o(i.nrf_drv_gpiote_in_uninit), (76 bytes).
    Removing nrf_drv_gpiote.o(i.nrf_drv_gpiote_out_clear), (16 bytes).
    Removing nrf_drv_gpiote.o(i.nrf_drv_gpiote_out_init), (152 bytes).
    Removing nrf_drv_gpiote.o(i.nrf_drv_gpiote_out_set), (16 bytes).
    Removing nrf_drv_gpiote.o(i.nrf_drv_gpiote_out_task_addr_get), (20 bytes).
    Removing nrf_drv_gpiote.o(i.nrf_drv_gpiote_out_task_disable), (32 bytes).
    Removing nrf_drv_gpiote.o(i.nrf_drv_gpiote_out_task_enable), (48 bytes).
    Removing nrf_drv_gpiote.o(i.nrf_drv_gpiote_out_task_force), (44 bytes).
    Removing nrf_drv_gpiote.o(i.nrf_drv_gpiote_out_task_trigger), (24 bytes).
    Removing nrf_drv_gpiote.o(i.nrf_drv_gpiote_out_toggle), (24 bytes).
    Removing nrf_drv_gpiote.o(i.nrf_drv_gpiote_out_uninit), (68 bytes).
    Removing nrf_drv_gpiote.o(i.nrf_drv_gpiote_uninit), (56 bytes).
    Removing nrf_drv_gpiote.o(i.nrf_gpio_cfg_default), (18 bytes).
    Removing nrf_drv_gpiote.o(.constdata), (20 bytes).
    Removing nrf_drv_gpiote.o(.constdata), (24 bytes).
    Removing nrf_drv_gpiote.o(.constdata), (23 bytes).
    Removing nrf_drv_uart.o(.rev16_text), (4 bytes).
    Removing nrf_drv_uart.o(.revsh_text), (4 bytes).
    Removing nrf_drv_uart.o(i.apply_config), (132 bytes).
    Removing nrf_drv_uart.o(i.nrf_drv_uart_errorsrc_get), (24 bytes).
    Removing nrf_drv_uart.o(i.nrf_drv_uart_init), (128 bytes).
    Removing nrf_drv_uart.o(i.nrf_drv_uart_rx), (92 bytes).
    Removing nrf_drv_uart.o(i.nrf_drv_uart_rx_abort), (22 bytes).
    Removing nrf_drv_uart.o(i.nrf_drv_uart_rx_disable), (28 bytes).
    Removing nrf_drv_uart.o(i.nrf_drv_uart_rx_enable), (44 bytes).
    Removing nrf_drv_uart.o(i.nrf_drv_uart_rx_for_uart), (168 bytes).
    Removing nrf_drv_uart.o(i.nrf_drv_uart_tx), (52 bytes).
    Removing nrf_drv_uart.o(i.nrf_drv_uart_tx_abort), (48 bytes).
    Removing nrf_drv_uart.o(i.nrf_drv_uart_tx_for_uart), (140 bytes).
    Removing nrf_drv_uart.o(i.nrf_drv_uart_tx_in_progress), (24 bytes).
    Removing nrf_drv_uart.o(i.nrf_drv_uart_uninit), (152 bytes).
    Removing nrf_drv_uart.o(i.nrf_gpio_cfg), (40 bytes).
    Removing nrf_drv_uart.o(i.nrf_gpio_cfg_default), (18 bytes).
    Removing nrf_drv_uart.o(i.nrf_gpio_cfg_input), (18 bytes).
    Removing nrf_drv_uart.o(i.nrf_gpio_cfg_output), (20 bytes).
    Removing nrf_drv_uart.o(i.rx_enable), (26 bytes).
    Removing nrf_drv_uart.o(.constdata), (18 bytes).
    Removing nrf_drv_uart.o(.constdata), (25 bytes).
    Removing nrf_drv_uart.o(.constdata), (16 bytes).
    Removing nrf_drv_uart.o(.constdata), (25 bytes).
    Removing nrf_drv_uart.o(.constdata), (16 bytes).
    Removing app_button.o(.rev16_text), (4 bytes).
    Removing app_button.o(.revsh_text), (4 bytes).
    Removing app_button.o(i.app_button_disable), (44 bytes).
    Removing app_button.o(i.app_button_enable), (36 bytes).
    Removing app_button.o(i.app_button_init), (116 bytes).
    Removing app_button.o(i.app_button_is_pushed), (36 bytes).
    Removing app_button.o(i.detection_delay_timeout_handler), (96 bytes).
    Removing app_button.o(i.gpiote_event_handler), (80 bytes).
    Removing app_button.o(.bss), (32 bytes).
    Removing app_button.o(.constdata), (8 bytes).
    Removing app_button.o(.data), (20 bytes).
    Removing app_error.o(.rev16_text), (4 bytes).
    Removing app_error.o(.revsh_text), (4 bytes).
    Removing app_error.o(i.app_error_handler), (28 bytes).
    Removing app_error.o(i.app_error_save_and_stop), (100 bytes).
    Removing app_error.o(.bss), (32 bytes).
    Removing app_error_weak.o(.rev16_text), (4 bytes).
    Removing app_error_weak.o(.revsh_text), (4 bytes).
    Removing app_timer.o(.rev16_text), (4 bytes).
    Removing app_timer.o(.revsh_text), (4 bytes).
    Removing app_timer.o(i.app_timer_cnt_diff_compute), (12 bytes).
    Removing app_timer.o(i.app_timer_cnt_get), (12 bytes).
    Removing app_timer.o(i.app_timer_stop_all), (28 bytes).
    Removing app_util_platform.o(.rev16_text), (4 bytes).
    Removing app_util_platform.o(.revsh_text), (4 bytes).
    Removing app_util_platform.o(i.app_util_disable_irq), (16 bytes).
    Removing app_util_platform.o(i.app_util_enable_irq), (20 bytes).
    Removing crc16.o(.rev16_text), (4 bytes).
    Removing crc16.o(.revsh_text), (4 bytes).
    Removing crc16.o(i.crc16_compute), (60 bytes).
    Removing fds.o(.rev16_text), (4 bytes).
    Removing fds.o(.revsh_text), (4 bytes).
    Removing fds.o(i.fds_descriptor_from_rec_id), (20 bytes).
    Removing fds.o(i.fds_record_delete), (68 bytes).
    Removing fds.o(i.fds_record_iterate), (16 bytes).
    Removing fds.o(i.fds_stat), (204 bytes).
    Removing fstorage.o(.rev16_text), (4 bytes).
    Removing fstorage.o(.revsh_text), (4 bytes).
    Removing fstorage.o(i.fs_fake_init), (20 bytes).
    Removing fstorage.o(i.fs_queue_is_empty), (20 bytes).
    Removing fstorage.o(i.fs_queue_is_full), (20 bytes).
    Removing hardfault_implementation.o(.rev16_text), (4 bytes).
    Removing hardfault_implementation.o(.revsh_text), (4 bytes).
    Removing nrf_assert.o(.rev16_text), (4 bytes).
    Removing nrf_assert.o(.revsh_text), (4 bytes).
    Removing nrf_assert.o(i.assert_nrf_callback), (24 bytes).
    Removing sdk_mapped_flags.o(.rev16_text), (4 bytes).
    Removing sdk_mapped_flags.o(.revsh_text), (4 bytes).
    Removing sdk_mapped_flags.o(i.sdk_mapped_flags_n_flags_set), (32 bytes).
    Removing nrf_log_backend_serial.o(.rev16_text), (4 bytes).
    Removing nrf_log_backend_serial.o(.revsh_text), (4 bytes).
    Removing nrf_log_frontend.o(.rev16_text), (4 bytes).
    Removing nrf_log_frontend.o(.revsh_text), (4 bytes).
    Removing segger_rtt.o(.rev16_text), (4 bytes).
    Removing segger_rtt.o(.revsh_text), (4 bytes).
    Removing segger_rtt.o(i.SEGGER_RTT_ConfigDownBuffer), (92 bytes).
    Removing segger_rtt.o(i.SEGGER_RTT_ConfigUpBuffer), (92 bytes).
    Removing segger_rtt.o(i.SEGGER_RTT_GetKey), (28 bytes).
    Removing segger_rtt.o(i.SEGGER_RTT_HasData), (20 bytes).
    Removing segger_rtt.o(i.SEGGER_RTT_HasKey), (36 bytes).
    Removing segger_rtt.o(i.SEGGER_RTT_Init), (20 bytes).
    Removing segger_rtt.o(i.SEGGER_RTT_Read), (44 bytes).
    Removing segger_rtt.o(i.SEGGER_RTT_ReadNoLock), (128 bytes).
    Removing segger_rtt.o(i.SEGGER_RTT_SetNameDownBuffer), (68 bytes).
    Removing segger_rtt.o(i.SEGGER_RTT_SetNameUpBuffer), (68 bytes).
    Removing segger_rtt.o(i.SEGGER_RTT_SetTerminal), (132 bytes).
    Removing segger_rtt.o(i.SEGGER_RTT_TerminalOut), (176 bytes).
    Removing segger_rtt.o(i.SEGGER_RTT_WaitKey), (12 bytes).
    Removing segger_rtt.o(i.SEGGER_RTT_Write), (60 bytes).
    Removing segger_rtt.o(i.SEGGER_RTT_WriteNoLock), (92 bytes).
    Removing segger_rtt.o(i.SEGGER_RTT_WriteSkipNoLock), (108 bytes).
    Removing segger_rtt.o(i.SEGGER_RTT_WriteString), (24 bytes).
    Removing segger_rtt.o(i._DoInit), (104 bytes).
    Removing segger_rtt.o(i._GetAvailWriteSpace), (22 bytes).
    Removing segger_rtt.o(i._PostTerminalSwitch), (32 bytes).
    Removing segger_rtt.o(i._WriteBlocking), (96 bytes).
    Removing segger_rtt.o(i._WriteNoCheck), (60 bytes).
    Removing segger_rtt.o(.bss), (200 bytes).
    Removing segger_rtt.o(.data), (17 bytes).
    Removing softdevice_handler.o(.rev16_text), (4 bytes).
    Removing softdevice_handler.o(.revsh_text), (4 bytes).
    Removing softdevice_handler.o(i.sd_check_ram_start), (16 bytes).
    Removing softdevice_handler.o(i.softdevice_handler_is_suspended), (12 bytes).
    Removing softdevice_handler.o(i.softdevice_handler_resume), (68 bytes).
    Removing softdevice_handler.o(i.softdevice_handler_sd_disable), (24 bytes).
    Removing softdevice_handler.o(i.softdevice_handler_suspend), (68 bytes).
    Removing arm_startup_nrf51.o(HEAP), (0 bytes).
    Removing system_nrf51.o(.rev16_text), (4 bytes).
    Removing system_nrf51.o(.revsh_text), (4 bytes).
    Removing system_nrf51.o(i.SystemCoreClockUpdate), (16 bytes).

308 unused section(s) (total 10394 bytes) removed from the image.

==============================================================================

Image Symbol Table

    Local Symbols

    Symbol Name                              Value     Ov Type        Size  Object(Section)

    ../clib/../cmprslib/zerorunl2.c          0x00000000   Number         0  __dczerorl2.o ABSOLUTE
    ../clib/microlib/division.c              0x00000000   Number         0  uidiv.o ABSOLUTE
    ../clib/microlib/init/entry.s            0x00000000   Number         0  entry11b.o ABSOLUTE
    ../clib/microlib/init/entry.s            0x00000000   Number         0  entry5.o ABSOLUTE
    ../clib/microlib/init/entry.s            0x00000000   Number         0  entry7a.o ABSOLUTE
    ../clib/microlib/init/entry.s            0x00000000   Number         0  entry2.o ABSOLUTE
    ../clib/microlib/init/entry.s            0x00000000   Number         0  entry7b.o ABSOLUTE
    ../clib/microlib/init/entry.s            0x00000000   Number         0  entry8a.o ABSOLUTE
    ../clib/microlib/init/entry.s            0x00000000   Number         0  entry8b.o ABSOLUTE
    ../clib/microlib/init/entry.s            0x00000000   Number         0  entry9a.o ABSOLUTE
    ../clib/microlib/init/entry.s            0x00000000   Number         0  entry9b.o ABSOLUTE
    ../clib/microlib/init/entry.s            0x00000000   Number         0  entry10a.o ABSOLUTE
    ../clib/microlib/init/entry.s            0x00000000   Number         0  entry10b.o ABSOLUTE
    ../clib/microlib/init/entry.s            0x00000000   Number         0  entry11a.o ABSOLUTE
    ../clib/microlib/init/entry.s            0x00000000   Number         0  entry.o ABSOLUTE
    ../clib/microlib/string/memcmp.c         0x00000000   Number         0  memcmp.o ABSOLUTE
    ../clib/microlib/string/memcpy.c         0x00000000   Number         0  memmoveb.o ABSOLUTE
    ../clib/microlib/string/memcpy.c         0x00000000   Number         0  memcpyb.o ABSOLUTE
    ../clib/microlib/string/memcpy.c         0x00000000   Number         0  memcpya.o ABSOLUTE
    ../clib/microlib/string/memcpy.c         0x00000000   Number         0  memmovea.o ABSOLUTE
    ../clib/microlib/string/memset.c         0x00000000   Number         0  memseta.o ABSOLUTE
    ../clib/microlib/string/strcpy.c         0x00000000   Number         0  strcpy.o ABSOLUTE
    ../clib/microlib/string/strlen.c         0x00000000   Number         0  strlen.o ABSOLUTE
    ..\..\..\..\..\..\components\ble\ble_advertising\ble_advertising.c 0x00000000   Number         0  ble_advertising.o ABSOLUTE
    ..\..\..\..\..\..\components\ble\ble_services\ble_bas\ble_bas.c 0x00000000   Number         0  ble_bas.o ABSOLUTE
    ..\..\..\..\..\..\components\ble\ble_services\ble_dis\ble_dis.c 0x00000000   Number         0  ble_dis.o ABSOLUTE
    ..\..\..\..\..\..\components\ble\ble_services\ble_hrs\ble_hrs.c 0x00000000   Number         0  ble_hrs.o ABSOLUTE
    ..\..\..\..\..\..\components\ble\common\ble_advdata.c 0x00000000   Number         0  ble_advdata.o ABSOLUTE
    ..\..\..\..\..\..\components\ble\common\ble_conn_params.c 0x00000000   Number         0  ble_conn_params.o ABSOLUTE
    ..\..\..\..\..\..\components\ble\common\ble_conn_state.c 0x00000000   Number         0  ble_conn_state.o ABSOLUTE
    ..\..\..\..\..\..\components\ble\common\ble_srv_common.c 0x00000000   Number         0  ble_srv_common.o ABSOLUTE
    ..\..\..\..\..\..\components\ble\nrf_ble_gatt\nrf_ble_gatt.c 0x00000000   Number         0  nrf_ble_gatt.o ABSOLUTE
    ..\..\..\..\..\..\components\ble\peer_manager\gatt_cache_manager.c 0x00000000   Number         0  gatt_cache_manager.o ABSOLUTE
    ..\..\..\..\..\..\components\ble\peer_manager\gatts_cache_manager.c 0x00000000   Number         0  gatts_cache_manager.o ABSOLUTE
    ..\..\..\..\..\..\components\ble\peer_manager\id_manager.c 0x00000000   Number         0  id_manager.o ABSOLUTE
    ..\..\..\..\..\..\components\ble\peer_manager\peer_data.c 0x00000000   Number         0  peer_data.o ABSOLUTE
    ..\..\..\..\..\..\components\ble\peer_manager\peer_data_storage.c 0x00000000   Number         0  peer_data_storage.o ABSOLUTE
    ..\..\..\..\..\..\components\ble\peer_manager\peer_database.c 0x00000000   Number         0  peer_database.o ABSOLUTE
    ..\..\..\..\..\..\components\ble\peer_manager\peer_id.c 0x00000000   Number         0  peer_id.o ABSOLUTE
    ..\..\..\..\..\..\components\ble\peer_manager\peer_manager.c 0x00000000   Number         0  peer_manager.o ABSOLUTE
    ..\..\..\..\..\..\components\ble\peer_manager\pm_buffer.c 0x00000000   Number         0  pm_buffer.o ABSOLUTE
    ..\..\..\..\..\..\components\ble\peer_manager\pm_mutex.c 0x00000000   Number         0  pm_mutex.o ABSOLUTE
    ..\..\..\..\..\..\components\ble\peer_manager\security_dispatcher.c 0x00000000   Number         0  security_dispatcher.o ABSOLUTE
    ..\..\..\..\..\..\components\ble\peer_manager\security_manager.c 0x00000000   Number         0  security_manager.o ABSOLUTE
    ..\..\..\..\..\..\components\boards\boards.c 0x00000000   Number         0  boards.o ABSOLUTE
    ..\..\..\..\..\..\components\drivers_nrf\clock\nrf_drv_clock.c 0x00000000   Number         0  nrf_drv_clock.o ABSOLUTE
    ..\..\..\..\..\..\components\drivers_nrf\common\nrf_drv_common.c 0x00000000   Number         0  nrf_drv_common.o ABSOLUTE
    ..\..\..\..\..\..\components\drivers_nrf\gpiote\nrf_drv_gpiote.c 0x00000000   Number         0  nrf_drv_gpiote.o ABSOLUTE
    ..\..\..\..\..\..\components\drivers_nrf\uart\nrf_drv_uart.c 0x00000000   Number         0  nrf_drv_uart.o ABSOLUTE
    ..\..\..\..\..\..\components\libraries\bsp\bsp.c 0x00000000   Number         0  bsp.o ABSOLUTE
    ..\..\..\..\..\..\components\libraries\bsp\bsp_btn_ble.c 0x00000000   Number         0  bsp_btn_ble.o ABSOLUTE
    ..\..\..\..\..\..\components\libraries\bsp\bsp_nfc.c 0x00000000   Number         0  bsp_nfc.o ABSOLUTE
    ..\..\..\..\..\..\components\libraries\button\app_button.c 0x00000000   Number         0  app_button.o ABSOLUTE
    ..\..\..\..\..\..\components\libraries\crc16\crc16.c 0x00000000   Number         0  crc16.o ABSOLUTE
    ..\..\..\..\..\..\components\libraries\fds\fds.c 0x00000000   Number         0  fds.o ABSOLUTE
    ..\..\..\..\..\..\components\libraries\fstorage\fstorage.c 0x00000000   Number         0  fstorage.o ABSOLUTE
    ..\..\..\..\..\..\components\libraries\hardfault\hardfault_implementation.c 0x00000000   Number         0  hardfault_implementation.o ABSOLUTE
    ..\..\..\..\..\..\components\libraries\log\src\nrf_log_backend_serial.c 0x00000000   Number         0  nrf_log_backend_serial.o ABSOLUTE
    ..\..\..\..\..\..\components\libraries\log\src\nrf_log_frontend.c 0x00000000   Number         0  nrf_log_frontend.o ABSOLUTE
    ..\..\..\..\..\..\components\libraries\sensorsim\sensorsim.c 0x00000000   Number         0  sensorsim.o ABSOLUTE
    ..\..\..\..\..\..\components\libraries\timer\app_timer.c 0x00000000   Number         0  app_timer.o ABSOLUTE
    ..\..\..\..\..\..\components\libraries\util\app_error.c 0x00000000   Number         0  app_error.o ABSOLUTE
    ..\..\..\..\..\..\components\libraries\util\app_error_weak.c 0x00000000   Number         0  app_error_weak.o ABSOLUTE
    ..\..\..\..\..\..\components\libraries\util\app_util_platform.c 0x00000000   Number         0  app_util_platform.o ABSOLUTE
    ..\..\..\..\..\..\components\libraries\util\nrf_assert.c 0x00000000   Number         0  nrf_assert.o ABSOLUTE
    ..\..\..\..\..\..\components\libraries\util\sdk_errors.c 0x00000000   Number         0  sdk_errors.o ABSOLUTE
    ..\..\..\..\..\..\components\libraries\util\sdk_mapped_flags.c 0x00000000   Number         0  sdk_mapped_flags.o ABSOLUTE
    ..\..\..\..\..\..\components\softdevice\common\softdevice_handler\softdevice_handler.c 0x00000000   Number         0  softdevice_handler.o ABSOLUTE
    ..\..\..\..\..\..\external\segger_rtt\RTT_Syscalls_KEIL.c 0x00000000   Number         0  rtt_syscalls_keil.o ABSOLUTE
    ..\..\..\..\..\..\external\segger_rtt\SEGGER_RTT.c 0x00000000   Number         0  segger_rtt.o ABSOLUTE
    ..\..\..\..\..\..\external\segger_rtt\SEGGER_RTT_printf.c 0x00000000   Number         0  segger_rtt_printf.o ABSOLUTE
    ..\..\..\main.c                          0x00000000   Number         0  main.o ABSOLUTE
    ..\\..\\..\\..\\..\\..\\components\\ble\\ble_advertising\\ble_advertising.c 0x00000000   Number         0  ble_advertising.o ABSOLUTE
    ..\\..\\..\\..\\..\\..\\components\\ble\\ble_services\\ble_bas\\ble_bas.c 0x00000000   Number         0  ble_bas.o ABSOLUTE
    ..\\..\\..\\..\\..\\..\\components\\ble\\ble_services\\ble_dis\\ble_dis.c 0x00000000   Number         0  ble_dis.o ABSOLUTE
    ..\\..\\..\\..\\..\\..\\components\\ble\\ble_services\\ble_hrs\\ble_hrs.c 0x00000000   Number         0  ble_hrs.o ABSOLUTE
    ..\\..\\..\\..\\..\\..\\components\\ble\\common\\ble_advdata.c 0x00000000   Number         0  ble_advdata.o ABSOLUTE
    ..\\..\\..\\..\\..\\..\\components\\ble\\common\\ble_conn_params.c 0x00000000   Number         0  ble_conn_params.o ABSOLUTE
    ..\\..\\..\\..\\..\\..\\components\\ble\\common\\ble_conn_state.c 0x00000000   Number         0  ble_conn_state.o ABSOLUTE
    ..\\..\\..\\..\\..\\..\\components\\ble\\common\\ble_srv_common.c 0x00000000   Number         0  ble_srv_common.o ABSOLUTE
    ..\\..\\..\\..\\..\\..\\components\\ble\\nrf_ble_gatt\\nrf_ble_gatt.c 0x00000000   Number         0  nrf_ble_gatt.o ABSOLUTE
    ..\\..\\..\\..\\..\\..\\components\\ble\\peer_manager\\gatt_cache_manager.c 0x00000000   Number         0  gatt_cache_manager.o ABSOLUTE
    ..\\..\\..\\..\\..\\..\\components\\ble\\peer_manager\\gatts_cache_manager.c 0x00000000   Number         0  gatts_cache_manager.o ABSOLUTE
    ..\\..\\..\\..\\..\\..\\components\\ble\\peer_manager\\id_manager.c 0x00000000   Number         0  id_manager.o ABSOLUTE
    ..\\..\\..\\..\\..\\..\\components\\ble\\peer_manager\\peer_data.c 0x00000000   Number         0  peer_data.o ABSOLUTE
    ..\\..\\..\\..\\..\\..\\components\\ble\\peer_manager\\peer_data_storage.c 0x00000000   Number         0  peer_data_storage.o ABSOLUTE
    ..\\..\\..\\..\\..\\..\\components\\ble\\peer_manager\\peer_database.c 0x00000000   Number         0  peer_database.o ABSOLUTE
    ..\\..\\..\\..\\..\\..\\components\\ble\\peer_manager\\peer_id.c 0x00000000   Number         0  peer_id.o ABSOLUTE
    ..\\..\\..\\..\\..\\..\\components\\ble\\peer_manager\\peer_manager.c 0x00000000   Number         0  peer_manager.o ABSOLUTE
    ..\\..\\..\\..\\..\\..\\components\\ble\\peer_manager\\pm_buffer.c 0x00000000   Number         0  pm_buffer.o ABSOLUTE
    ..\\..\\..\\..\\..\\..\\components\\ble\\peer_manager\\pm_mutex.c 0x00000000   Number         0  pm_mutex.o ABSOLUTE
    ..\\..\\..\\..\\..\\..\\components\\ble\\peer_manager\\security_dispatcher.c 0x00000000   Number         0  security_dispatcher.o ABSOLUTE
    ..\\..\\..\\..\\..\\..\\components\\ble\\peer_manager\\security_manager.c 0x00000000   Number         0  security_manager.o ABSOLUTE
    ..\\..\\..\\..\\..\\..\\components\\boards\\boards.c 0x00000000   Number         0  boards.o ABSOLUTE
    ..\\..\\..\\..\\..\\..\\components\\drivers_nrf\\clock\\nrf_drv_clock.c 0x00000000   Number         0  nrf_drv_clock.o ABSOLUTE
    ..\\..\\..\\..\\..\\..\\components\\drivers_nrf\\common\\nrf_drv_common.c 0x00000000   Number         0  nrf_drv_common.o ABSOLUTE
    ..\\..\\..\\..\\..\\..\\components\\drivers_nrf\\gpiote\\nrf_drv_gpiote.c 0x00000000   Number         0  nrf_drv_gpiote.o ABSOLUTE
    ..\\..\\..\\..\\..\\..\\components\\drivers_nrf\\uart\\nrf_drv_uart.c 0x00000000   Number         0  nrf_drv_uart.o ABSOLUTE
    ..\\..\\..\\..\\..\\..\\components\\libraries\\bsp\\bsp.c 0x00000000   Number         0  bsp.o ABSOLUTE
    ..\\..\\..\\..\\..\\..\\components\\libraries\\bsp\\bsp_btn_ble.c 0x00000000   Number         0  bsp_btn_ble.o ABSOLUTE
    ..\\..\\..\\..\\..\\..\\components\\libraries\\bsp\\bsp_nfc.c 0x00000000   Number         0  bsp_nfc.o ABSOLUTE
    ..\\..\\..\\..\\..\\..\\components\\libraries\\button\\app_button.c 0x00000000   Number         0  app_button.o ABSOLUTE
    ..\\..\\..\\..\\..\\..\\components\\libraries\\crc16\\crc16.c 0x00000000   Number         0  crc16.o ABSOLUTE
    ..\\..\\..\\..\\..\\..\\components\\libraries\\fds\\fds.c 0x00000000   Number         0  fds.o ABSOLUTE
    ..\\..\\..\\..\\..\\..\\components\\libraries\\fstorage\\fstorage.c 0x00000000   Number         0  fstorage.o ABSOLUTE
    ..\\..\\..\\..\\..\\..\\components\\libraries\\hardfault\\hardfault_implementation.c 0x00000000   Number         0  hardfault_implementation.o ABSOLUTE
    ..\\..\\..\\..\\..\\..\\components\\libraries\\log\\src\\nrf_log_backend_serial.c 0x00000000   Number         0  nrf_log_backend_serial.o ABSOLUTE
    ..\\..\\..\\..\\..\\..\\components\\libraries\\log\\src\\nrf_log_frontend.c 0x00000000   Number         0  nrf_log_frontend.o ABSOLUTE
    ..\\..\\..\\..\\..\\..\\components\\libraries\\timer\\app_timer.c 0x00000000   Number         0  app_timer.o ABSOLUTE
    ..\\..\\..\\..\\..\\..\\components\\libraries\\util\\app_error.c 0x00000000   Number         0  app_error.o ABSOLUTE
    ..\\..\\..\\..\\..\\..\\components\\libraries\\util\\app_error_weak.c 0x00000000   Number         0  app_error_weak.o ABSOLUTE
    ..\\..\\..\\..\\..\\..\\components\\libraries\\util\\app_util_platform.c 0x00000000   Number         0  app_util_platform.o ABSOLUTE
    ..\\..\\..\\..\\..\\..\\components\\libraries\\util\\nrf_assert.c 0x00000000   Number         0  nrf_assert.o ABSOLUTE
    ..\\..\\..\\..\\..\\..\\components\\libraries\\util\\sdk_mapped_flags.c 0x00000000   Number         0  sdk_mapped_flags.o ABSOLUTE
    ..\\..\\..\\..\\..\\..\\components\\softdevice\\common\\softdevice_handler\\softdevice_handler.c 0x00000000   Number         0  softdevice_handler.o ABSOLUTE
    ..\\..\\..\\..\\..\\..\\external\\segger_rtt\\SEGGER_RTT.c 0x00000000   Number         0  segger_rtt.o ABSOLUTE
    ..\\..\\..\\main.c                       0x00000000   Number         0  main.o ABSOLUTE
    RTE\Device\nRF51422_xxAC\arm_startup_nrf51.s 0x00000000   Number         0  arm_startup_nrf51.o ABSOLUTE
    RTE\Device\nRF51422_xxAC\system_nrf51.c  0x00000000   Number         0  system_nrf51.o ABSOLUTE
    RTE\\Device\\nRF51422_xxAC\\system_nrf51.c 0x00000000   Number         0  system_nrf51.o ABSOLUTE
    dc.s                                     0x00000000   Number         0  dc.o ABSOLUTE
    handlers.s                               0x00000000   Number         0  handlers.o ABSOLUTE
    init.s                                   0x00000000   Number         0  init.o ABSOLUTE
    RESET                                    0x0001b000   Section      192  arm_startup_nrf51.o(RESET)
    .ARM.Collect$$$$00000000                 0x0001b0c0   Section        0  entry.o(.ARM.Collect$$$$00000000)
    .ARM.Collect$$$$00000001                 0x0001b0c0   Section        4  entry2.o(.ARM.Collect$$$$00000001)
    .ARM.Collect$$$$00000004                 0x0001b0c4   Section        4  entry5.o(.ARM.Collect$$$$00000004)
    .ARM.Collect$$$$00000008                 0x0001b0c8   Section        0  entry7b.o(.ARM.Collect$$$$00000008)
    .ARM.Collect$$$$0000000A                 0x0001b0c8   Section        0  entry8b.o(.ARM.Collect$$$$0000000A)
    .ARM.Collect$$$$0000000B                 0x0001b0c8   Section        8  entry9a.o(.ARM.Collect$$$$0000000B)
    .ARM.Collect$$$$0000000D                 0x0001b0d0   Section        0  entry10a.o(.ARM.Collect$$$$0000000D)
    .ARM.Collect$$$$0000000F                 0x0001b0d0   Section        0  entry11a.o(.ARM.Collect$$$$0000000F)
    .ARM.Collect$$$$00002712                 0x0001b0d0   Section        4  entry2.o(.ARM.Collect$$$$00002712)
    __lit__00000000                          0x0001b0d0   Data           4  entry2.o(.ARM.Collect$$$$00002712)
    .text                                    0x0001b0d4   Section       56  arm_startup_nrf51.o(.text)
    .text                                    0x0001b10c   Section        0  uidiv.o(.text)
    .text                                    0x0001b138   Section        0  memmovea.o(.text)
    .text                                    0x0001b178   Section        0  memseta.o(.text)
    .text                                    0x0001b19c   Section        0  strlen.o(.text)
    .text                                    0x0001b1aa   Section        0  memcmp.o(.text)
    .text                                    0x0001b1c4   Section       36  init.o(.text)
    .text                                    0x0001b1e8   Section        0  __dczerorl2.o(.text)
    i.GPIOTE_IRQHandler                      0x0001b240   Section        0  nrf_drv_gpiote.o(i.GPIOTE_IRQHandler)
    i.NVIC_SetPriority                       0x0001b3b8   Section        0  app_timer.o(i.NVIC_SetPriority)
    NVIC_SetPriority                         0x0001b3b9   Thumb Code    60  app_timer.o(i.NVIC_SetPriority)
    i.POWER_CLOCK_IRQHandler                 0x0001b3fc   Section        0  nrf_drv_clock.o(i.POWER_CLOCK_IRQHandler)
    i.RTC1_IRQHandler                        0x0001b450   Section        0  app_timer.o(i.RTC1_IRQHandler)
    i.SWI0_IRQHandler                        0x0001b470   Section        0  app_timer.o(i.SWI0_IRQHandler)
    i.SWI2_IRQHandler                        0x0001b478   Section        0  softdevice_handler.o(i.SWI2_IRQHandler)
    i.SystemInit                             0x0001b498   Section        0  system_nrf51.o(i.SystemInit)
    i.UART0_IRQHandler                       0x0001b538   Section        0  nrf_drv_uart.o(i.UART0_IRQHandler)
    i.__ARM_common_switch8                   0x0001b54c   Section        0  main.o(i.__ARM_common_switch8)
    i.__scatterload_copy                     0x0001b566   Section       14  handlers.o(i.__scatterload_copy)
    i.__scatterload_null                     0x0001b574   Section        2  handlers.o(i.__scatterload_null)
    i.__scatterload_zeroinit                 0x0001b576   Section       14  handlers.o(i.__scatterload_zeroinit)
    i.__sd_nvic_app_accessible_irq           0x0001b584   Section        0  softdevice_handler.o(i.__sd_nvic_app_accessible_irq)
    __sd_nvic_app_accessible_irq             0x0001b585   Thumb Code    22  softdevice_handler.o(i.__sd_nvic_app_accessible_irq)
    i.addr_compare                           0x0001b5a0   Section        0  id_manager.o(i.addr_compare)
    i.adv_data_encode                        0x0001b5c8   Section        0  ble_advdata.o(i.adv_data_encode)
    i.adv_mode_next_avail_get                0x0001b758   Section        0  ble_advertising.o(i.adv_mode_next_avail_get)
    adv_mode_next_avail_get                  0x0001b759   Thumb Code    94  ble_advertising.o(i.adv_mode_next_avail_get)
    i.advertising_buttons_configure          0x0001b7c0   Section        0  bsp_btn_ble.o(i.advertising_buttons_configure)
    advertising_buttons_configure            0x0001b7c1   Thumb Code    60  bsp_btn_ble.o(i.advertising_buttons_configure)
    i.advertising_start                      0x0001b7fc   Section        0  main.o(i.advertising_start)
    i.ah                                     0x0001b80e   Section        0  id_manager.o(i.ah)
    i.app_error_fault_handler                0x0001b85c   Section        0  app_error_weak.o(i.app_error_fault_handler)
    i.app_error_handler_bare                 0x0001b878   Section        0  app_error.o(i.app_error_handler_bare)
    i.app_timer_create                       0x0001b890   Section        0  app_timer.o(i.app_timer_create)
    i.app_timer_init                         0x0001b8bc   Section        0  app_timer.o(i.app_timer_init)
    i.app_timer_start                        0x0001b930   Section        0  app_timer.o(i.app_timer_start)
    i.app_timer_stop                         0x0001b9b8   Section        0  app_timer.o(i.app_timer_stop)
    i.app_util_critical_region_enter         0x0001b9e0   Section        0  app_util_platform.o(i.app_util_critical_region_enter)
    i.app_util_critical_region_exit          0x0001ba1c   Section        0  app_util_platform.o(i.app_util_critical_region_exit)
    i.application_timers_start               0x0001ba48   Section        0  main.o(i.application_timers_start)
    application_timers_start                 0x0001ba49   Thumb Code    84  main.o(i.application_timers_start)
    i.auth_status_success_process            0x0001baa4   Section        0  security_dispatcher.o(i.auth_status_success_process)
    auth_status_success_process              0x0001baa5   Thumb Code   154  security_dispatcher.o(i.auth_status_success_process)
    i.battery_level_char_add                 0x0001bb44   Section        0  ble_bas.o(i.battery_level_char_add)
    battery_level_char_add                   0x0001bb45   Thumb Code   302  ble_bas.o(i.battery_level_char_add)
    i.battery_level_meas_timeout_handler     0x0001bc7c   Section        0  main.o(i.battery_level_meas_timeout_handler)
    battery_level_meas_timeout_handler       0x0001bc7d   Thumb Code    46  main.o(i.battery_level_meas_timeout_handler)
    i.ble_advdata_set                        0x0001bcbc   Section        0  ble_advdata.o(i.ble_advdata_set)
    i.ble_advertising_init                   0x0001bd24   Section        0  ble_advertising.o(i.ble_advertising_init)
    i.ble_advertising_on_ble_evt             0x0001be80   Section        0  ble_advertising.o(i.ble_advertising_on_ble_evt)
    i.ble_advertising_on_sys_evt             0x0001bed8   Section        0  ble_advertising.o(i.ble_advertising_on_sys_evt)
    i.ble_advertising_start                  0x0001bf08   Section        0  ble_advertising.o(i.ble_advertising_start)
    i.ble_bas_battery_level_update           0x0001c010   Section        0  ble_bas.o(i.ble_bas_battery_level_update)
    i.ble_bas_init                           0x0001c084   Section        0  ble_bas.o(i.ble_bas_init)
    i.ble_bas_on_ble_evt                     0x0001c0cc   Section        0  ble_bas.o(i.ble_bas_on_ble_evt)
    i.ble_conn_params_init                   0x0001c12c   Section        0  ble_conn_params.o(i.ble_conn_params_init)
    i.ble_conn_params_on_ble_evt             0x0001c180   Section        0  ble_conn_params.o(i.ble_conn_params_on_ble_evt)
    i.ble_conn_state_conn_handles            0x0001c210   Section        0  ble_conn_state.o(i.ble_conn_state_conn_handles)
    i.ble_conn_state_encrypted               0x0001c224   Section        0  ble_conn_state.o(i.ble_conn_state_encrypted)
    i.ble_conn_state_mitm_protected          0x0001c238   Section        0  ble_conn_state.o(i.ble_conn_state_mitm_protected)
    i.ble_conn_state_on_ble_evt              0x0001c24c   Section        0  ble_conn_state.o(i.ble_conn_state_on_ble_evt)
    i.ble_conn_state_role                    0x0001c344   Section        0  ble_conn_state.o(i.ble_conn_state_role)
    i.ble_conn_state_user_flag_acquire       0x0001c378   Section        0  ble_conn_state.o(i.ble_conn_state_user_flag_acquire)
    i.ble_conn_state_user_flag_collection    0x0001c3a8   Section        0  ble_conn_state.o(i.ble_conn_state_user_flag_collection)
    i.ble_conn_state_user_flag_get           0x0001c3c0   Section        0  ble_conn_state.o(i.ble_conn_state_user_flag_get)
    i.ble_conn_state_user_flag_set           0x0001c3e4   Section        0  ble_conn_state.o(i.ble_conn_state_user_flag_set)
    i.ble_device_addr_encode                 0x0001c40c   Section        0  ble_advdata.o(i.ble_device_addr_encode)
    ble_device_addr_encode                   0x0001c40d   Thumb Code    94  ble_advdata.o(i.ble_device_addr_encode)
    i.ble_dis_init                           0x0001c46c   Section        0  ble_dis.o(i.ble_dis_init)
    i.ble_evt_dispatch                       0x0001c5ac   Section        0  main.o(i.ble_evt_dispatch)
    ble_evt_dispatch                         0x0001c5ad   Thumb Code    68  main.o(i.ble_evt_dispatch)
    i.ble_hrs_heart_rate_measurement_send    0x0001c5f4   Section        0  ble_hrs.o(i.ble_hrs_heart_rate_measurement_send)
    i.ble_hrs_init                           0x0001c64c   Section        0  ble_hrs.o(i.ble_hrs_init)
    i.ble_hrs_on_ble_evt                     0x0001c6ac   Section        0  ble_hrs.o(i.ble_hrs_on_ble_evt)
    i.ble_hrs_on_gatt_evt                    0x0001c6fe   Section        0  ble_hrs.o(i.ble_hrs_on_gatt_evt)
    i.ble_hrs_rr_interval_add                0x0001c710   Section        0  ble_hrs.o(i.ble_hrs_rr_interval_add)
    i.ble_hrs_sensor_contact_detected_update 0x0001c73e   Section        0  ble_hrs.o(i.ble_hrs_sensor_contact_detected_update)
    i.ble_srv_ascii_to_utf8                  0x0001c744   Section        0  ble_srv_common.o(i.ble_srv_ascii_to_utf8)
    i.ble_srv_is_notification_enabled        0x0001c756   Section        0  ble_srv_common.o(i.ble_srv_is_notification_enabled)
    i.ble_srv_report_ref_encode              0x0001c764   Section        0  ble_srv_common.o(i.ble_srv_report_ref_encode)
    i.ble_stack_init                         0x0001c770   Section        0  main.o(i.ble_stack_init)
    ble_stack_init                           0x0001c771   Thumb Code    94  main.o(i.ble_stack_init)
    i.body_sensor_location_char_add          0x0001c7e0   Section        0  ble_hrs.o(i.body_sensor_location_char_add)
    body_sensor_location_char_add            0x0001c7e1   Thumb Code   130  ble_hrs.o(i.body_sensor_location_char_add)
    i.bsp_board_button_idx_to_pin            0x0001c868   Section        0  boards.o(i.bsp_board_button_idx_to_pin)
    i.bsp_board_led_invert                   0x0001c874   Section        0  boards.o(i.bsp_board_led_invert)
    i.bsp_board_led_off                      0x0001c894   Section        0  boards.o(i.bsp_board_led_off)
    i.bsp_board_led_on                       0x0001c8a8   Section        0  boards.o(i.bsp_board_led_on)
    i.bsp_board_led_state_get                0x0001c8bc   Section        0  boards.o(i.bsp_board_led_state_get)
    i.bsp_board_leds_off                     0x0001c8dc   Section        0  boards.o(i.bsp_board_leds_off)
    i.bsp_board_leds_on                      0x0001c8ee   Section        0  boards.o(i.bsp_board_leds_on)
    i.bsp_board_pin_to_button_idx            0x0001c900   Section        0  boards.o(i.bsp_board_pin_to_button_idx)
    i.bsp_btn_ble_on_ble_evt                 0x0001c924   Section        0  bsp_btn_ble.o(i.bsp_btn_ble_on_ble_evt)
    i.bsp_btn_ble_sleep_mode_prepare         0x0001c99c   Section        0  bsp_btn_ble.o(i.bsp_btn_ble_sleep_mode_prepare)
    i.bsp_button_event_handler               0x0001c9c0   Section        0  bsp.o(i.bsp_button_event_handler)
    bsp_button_event_handler                 0x0001c9c1   Thumb Code   134  bsp.o(i.bsp_button_event_handler)
    i.bsp_event_to_button_action_assign      0x0001ca54   Section        0  bsp.o(i.bsp_event_to_button_action_assign)
    i.bsp_indication_set                     0x0001ca9c   Section        0  bsp.o(i.bsp_indication_set)
    i.bsp_led_indication                     0x0001cab8   Section        0  bsp.o(i.bsp_led_indication)
    bsp_led_indication                       0x0001cab9   Thumb Code   376  bsp.o(i.bsp_led_indication)
    i.bsp_wakeup_button_enable               0x0001cc38   Section        0  bsp.o(i.bsp_wakeup_button_enable)
    i.channel_free                           0x0001cc48   Section        0  nrf_drv_gpiote.o(i.channel_free)
    channel_free                             0x0001cc49   Thumb Code    22  nrf_drv_gpiote.o(i.channel_free)
    i.channel_port_alloc                     0x0001cc64   Section        0  nrf_drv_gpiote.o(i.channel_port_alloc)
    channel_port_alloc                       0x0001cc65   Thumb Code    66  nrf_drv_gpiote.o(i.channel_port_alloc)
    i.channel_port_get                       0x0001ccac   Section        0  nrf_drv_gpiote.o(i.channel_port_get)
    channel_port_get                         0x0001ccad   Thumb Code    10  nrf_drv_gpiote.o(i.channel_port_get)
    i.char_add                               0x0001ccbc   Section        0  ble_dis.o(i.char_add)
    char_add                                 0x0001ccbd   Thumb Code   148  ble_dis.o(i.char_add)
    i.check_config                           0x0001cd54   Section        0  fstorage.o(i.check_config)
    check_config                             0x0001cd55   Thumb Code    24  fstorage.o(i.check_config)
    i.chunk_queue_next                       0x0001cd74   Section        0  fds.o(i.chunk_queue_next)
    i.claim                                  0x0001cd8c   Section        0  peer_id.o(i.claim)
    claim                                    0x0001cd8d   Thumb Code    56  peer_id.o(i.claim)
    i.clock_clk_started_notify               0x0001cdc8   Section        0  nrf_drv_clock.o(i.clock_clk_started_notify)
    clock_clk_started_notify                 0x0001cdc9   Thumb Code    34  nrf_drv_clock.o(i.clock_clk_started_notify)
    i.compare_reg_update                     0x0001cdf0   Section        0  app_timer.o(i.compare_reg_update)
    compare_reg_update                       0x0001cdf1   Thumb Code   142  app_timer.o(i.compare_reg_update)
    i.conn_int_encode                        0x0001ce98   Section        0  ble_advdata.o(i.conn_int_encode)
    conn_int_encode                          0x0001ce99   Thumb Code   130  ble_advdata.o(i.conn_int_encode)
    i.conn_params_error_handler              0x0001cf20   Section        0  main.o(i.conn_params_error_handler)
    conn_params_error_handler                0x0001cf21   Thumb Code     8  main.o(i.conn_params_error_handler)
    i.conn_params_negotiation                0x0001cf28   Section        0  ble_conn_params.o(i.conn_params_negotiation)
    conn_params_negotiation                  0x0001cf29   Thumb Code    92  ble_conn_params.o(i.conn_params_negotiation)
    i.delete_execute                         0x0001cf90   Section        0  fds.o(i.delete_execute)
    delete_execute                           0x0001cf91   Thumb Code   130  fds.o(i.delete_execute)
    i.elapsed_ticks_acquire                  0x0001d01c   Section        0  app_timer.o(i.elapsed_ticks_acquire)
    elapsed_ticks_acquire                    0x0001d01d   Thumb Code    58  app_timer.o(i.elapsed_ticks_acquire)
    i.encryption_failure                     0x0001d05c   Section        0  security_dispatcher.o(i.encryption_failure)
    encryption_failure                       0x0001d05d   Thumb Code    38  security_dispatcher.o(i.encryption_failure)
    i.event_prepare                          0x0001d08c   Section        0  fds.o(i.event_prepare)
    event_prepare                            0x0001d08d   Thumb Code   106  fds.o(i.event_prepare)
    i.event_send                             0x0001d0f8   Section        0  fds.o(i.event_send)
    event_send                               0x0001d0f9   Thumb Code    28  fds.o(i.event_send)
    i.events_send_from_err_code              0x0001d118   Section        0  security_manager.o(i.events_send_from_err_code)
    events_send_from_err_code                0x0001d119   Thumb Code    50  security_manager.o(i.events_send_from_err_code)
    i.evt_send                               0x0001d14c   Section        0  gatt_cache_manager.o(i.evt_send)
    evt_send                                 0x0001d14d   Thumb Code     6  gatt_cache_manager.o(i.evt_send)
    i.evt_send                               0x0001d158   Section        0  id_manager.o(i.evt_send)
    evt_send                                 0x0001d159   Thumb Code    24  id_manager.o(i.evt_send)
    i.evt_send                               0x0001d174   Section        0  peer_manager.o(i.evt_send)
    evt_send                                 0x0001d175   Thumb Code    30  peer_manager.o(i.evt_send)
    i.evt_send                               0x0001d19c   Section        0  security_dispatcher.o(i.evt_send)
    evt_send                                 0x0001d19d   Thumb Code    24  security_dispatcher.o(i.evt_send)
    i.evt_send                               0x0001d1b8   Section        0  security_manager.o(i.evt_send)
    evt_send                                 0x0001d1b9   Thumb Code     6  security_manager.o(i.evt_send)
    i.fds_evt_handler                        0x0001d1c4   Section        0  main.o(i.fds_evt_handler)
    fds_evt_handler                          0x0001d1c5   Thumb Code     2  main.o(i.fds_evt_handler)
    i.fds_evt_handler                        0x0001d1c8   Section        0  peer_data_storage.o(i.fds_evt_handler)
    fds_evt_handler                          0x0001d1c9   Thumb Code   280  peer_data_storage.o(i.fds_evt_handler)
    i.fds_file_delete                        0x0001d2e4   Section        0  fds.o(i.fds_file_delete)
    i.fds_gc                                 0x0001d330   Section        0  fds.o(i.fds_gc)
    i.fds_init                               0x0001d378   Section        0  fds.o(i.fds_init)
    i.fds_record_close                       0x0001d400   Section        0  fds.o(i.fds_record_close)
    i.fds_record_find                        0x0001d440   Section        0  fds.o(i.fds_record_find)
    i.fds_record_find_by_key                 0x0001d44e   Section        0  fds.o(i.fds_record_find_by_key)
    i.fds_record_find_in_file                0x0001d45e   Section        0  fds.o(i.fds_record_find_in_file)
    i.fds_record_id_from_desc                0x0001d46e   Section        0  fds.o(i.fds_record_id_from_desc)
    i.fds_record_open                        0x0001d484   Section        0  fds.o(i.fds_record_open)
    i.fds_record_update                      0x0001d4c8   Section        0  fds.o(i.fds_record_update)
    i.fds_record_write                       0x0001d4dc   Section        0  fds.o(i.fds_record_write)
    i.fds_record_write_reserved              0x0001d4e8   Section        0  fds.o(i.fds_record_write_reserved)
    i.fds_register                           0x0001d4fc   Section        0  fds.o(i.fds_register)
    i.fds_reserve                            0x0001d520   Section        0  fds.o(i.fds_reserve)
    i.fds_reserve_cancel                     0x0001d554   Section        0  fds.o(i.fds_reserve_cancel)
    i.file_id_to_peer_id                     0x0001d59c   Section        0  peer_data_storage.o(i.file_id_to_peer_id)
    file_id_to_peer_id                       0x0001d59d   Thumb Code    10  peer_data_storage.o(i.file_id_to_peer_id)
    i.file_id_within_pm_range                0x0001d5a8   Section        0  peer_data_storage.o(i.file_id_within_pm_range)
    file_id_within_pm_range                  0x0001d5a9   Thumb Code    20  peer_data_storage.o(i.file_id_within_pm_range)
    i.flag_clear                             0x0001d5c0   Section        0  fds.o(i.flag_clear)
    flag_clear                               0x0001d5c1   Thumb Code    10  fds.o(i.flag_clear)
    i.flag_id_init                           0x0001d5d0   Section        0  security_dispatcher.o(i.flag_id_init)
    flag_id_init                             0x0001d5d1   Thumb Code    18  security_dispatcher.o(i.flag_id_init)
    i.flag_id_init                           0x0001d5e2   Section        0  security_manager.o(i.flag_id_init)
    flag_id_init                             0x0001d5e3   Thumb Code    18  security_manager.o(i.flag_id_init)
    i.flag_set                               0x0001d5f4   Section        0  fds.o(i.flag_set)
    flag_set                                 0x0001d5f5   Thumb Code    10  fds.o(i.flag_set)
    i.flags_set_from_err_code                0x0001d604   Section        0  security_manager.o(i.flags_set_from_err_code)
    flags_set_from_err_code                  0x0001d605   Thumb Code    88  security_manager.o(i.flags_set_from_err_code)
    i.fs_erase                               0x0001d660   Section        0  fstorage.o(i.fs_erase)
    i.fs_event_handler                       0x0001d6dc   Section        0  fds.o(i.fs_event_handler)
    fs_event_handler                         0x0001d6dd   Thumb Code    10  fds.o(i.fs_event_handler)
    i.fs_init                                0x0001d6e8   Section        0  fstorage.o(i.fs_init)
    i.fs_queued_op_count_get                 0x0001d794   Section        0  fstorage.o(i.fs_queued_op_count_get)
    i.fs_store                               0x0001d7ac   Section        0  fstorage.o(i.fs_store)
    i.fs_sys_event_handler                   0x0001d830   Section        0  fstorage.o(i.fs_sys_event_handler)
    i.gap_params_init                        0x0001d898   Section        0  main.o(i.gap_params_init)
    gap_params_init                          0x0001d899   Thumb Code    78  main.o(i.gap_params_init)
    i.gatt_evt_handler                       0x0001d8f8   Section        0  main.o(i.gatt_evt_handler)
    i.gatt_init                              0x0001d908   Section        0  main.o(i.gatt_init)
    i.gc_execute                             0x0001d924   Section        0  fds.o(i.gc_execute)
    gc_execute                               0x0001d925   Thumb Code   100  fds.o(i.gc_execute)
    i.gc_next_page                           0x0001d98c   Section        0  fds.o(i.gc_next_page)
    gc_next_page                             0x0001d98d   Thumb Code    66  fds.o(i.gc_next_page)
    i.gc_page_erase                          0x0001d9d8   Section        0  fds.o(i.gc_page_erase)
    gc_page_erase                            0x0001d9d9   Thumb Code    62  fds.o(i.gc_page_erase)
    i.gc_record_copy                         0x0001da24   Section        0  fds.o(i.gc_record_copy)
    gc_record_copy                           0x0001da25   Thumb Code    38  fds.o(i.gc_record_copy)
    i.gc_record_find_next                    0x0001da58   Section        0  fds.o(i.gc_record_find_next)
    gc_record_find_next                      0x0001da59   Thumb Code    28  fds.o(i.gc_record_find_next)
    i.gc_state_advance                       0x0001da78   Section        0  fds.o(i.gc_state_advance)
    gc_state_advance                         0x0001da79   Thumb Code   118  fds.o(i.gc_state_advance)
    i.gcm_ble_evt_handler                    0x0001daf8   Section        0  gatt_cache_manager.o(i.gcm_ble_evt_handler)
    i.gcm_gscm_evt_handler                   0x0001dbe8   Section        0  gatt_cache_manager.o(i.gcm_gscm_evt_handler)
    i.gcm_im_evt_handler                     0x0001dc50   Section        0  gatt_cache_manager.o(i.gcm_im_evt_handler)
    i.gcm_init                               0x0001dc7c   Section        0  gatt_cache_manager.o(i.gcm_init)
    i.gcm_local_database_has_changed         0x0001dcc4   Section        0  gatt_cache_manager.o(i.gcm_local_database_has_changed)
    i.gcm_smd_evt_handler                    0x0001dd10   Section        0  gatt_cache_manager.o(i.gcm_smd_evt_handler)
    i.get_connection_by_conn_handle          0x0001dd20   Section        0  id_manager.o(i.get_connection_by_conn_handle)
    i.get_free_connection                    0x0001dd58   Section        0  id_manager.o(i.get_free_connection)
    i.gscm_db_change_notification_done       0x0001dd88   Section        0  gatts_cache_manager.o(i.gscm_db_change_notification_done)
    i.gscm_init                              0x0001dda4   Section        0  gatts_cache_manager.o(i.gscm_init)
    i.gscm_local_database_has_changed        0x0001ddb8   Section        0  gatts_cache_manager.o(i.gscm_local_database_has_changed)
    i.gscm_local_db_cache_apply              0x0001ddd4   Section        0  gatts_cache_manager.o(i.gscm_local_db_cache_apply)
    i.gscm_local_db_cache_update             0x0001de40   Section        0  gatts_cache_manager.o(i.gscm_local_db_cache_update)
    i.gscm_pdb_evt_handler                   0x0001dec4   Section        0  gatts_cache_manager.o(i.gscm_pdb_evt_handler)
    i.gscm_service_changed_ind_needed        0x0001df14   Section        0  gatts_cache_manager.o(i.gscm_service_changed_ind_needed)
    i.gscm_service_changed_ind_send          0x0001df30   Section        0  gatts_cache_manager.o(i.gscm_service_changed_ind_send)
    i.header_is_valid                        0x0001df5c   Section        0  fds.o(i.header_is_valid)
    header_is_valid                          0x0001df5d   Thumb Code    22  fds.o(i.header_is_valid)
    i.heart_rate_meas_timeout_handler        0x0001df78   Section        0  main.o(i.heart_rate_meas_timeout_handler)
    heart_rate_meas_timeout_handler          0x0001df79   Thumb Code    76  main.o(i.heart_rate_meas_timeout_handler)
    i.heart_rate_measurement_char_add        0x0001dfd4   Section        0  ble_hrs.o(i.heart_rate_measurement_char_add)
    heart_rate_measurement_char_add          0x0001dfd5   Thumb Code   172  ble_hrs.o(i.heart_rate_measurement_char_add)
    i.hrm_encode                             0x0001e084   Section        0  ble_hrs.o(i.hrm_encode)
    hrm_encode                               0x0001e085   Thumb Code   138  ble_hrs.o(i.hrm_encode)
    i.im_address_resolve                     0x0001e10e   Section        0  id_manager.o(i.im_address_resolve)
    i.im_ble_addr_get                        0x0001e150   Section        0  id_manager.o(i.im_ble_addr_get)
    i.im_ble_evt_handler                     0x0001e17c   Section        0  id_manager.o(i.im_ble_evt_handler)
    i.im_conn_handle_get                     0x0001e224   Section        0  id_manager.o(i.im_conn_handle_get)
    i.im_init                                0x0001e250   Section        0  id_manager.o(i.im_init)
    i.im_is_duplicate_bonding_data           0x0001e298   Section        0  id_manager.o(i.im_is_duplicate_bonding_data)
    i.im_master_id_is_valid                  0x0001e2d0   Section        0  id_manager.o(i.im_master_id_is_valid)
    i.im_master_ids_compare                  0x0001e2ec   Section        0  id_manager.o(i.im_master_ids_compare)
    i.im_new_peer_id                         0x0001e318   Section        0  id_manager.o(i.im_new_peer_id)
    i.im_pdb_evt_handler                     0x0001e320   Section        0  id_manager.o(i.im_pdb_evt_handler)
    i.im_peer_free                           0x0001e390   Section        0  id_manager.o(i.im_peer_free)
    i.im_peer_id_get_by_conn_handle          0x0001e3bc   Section        0  id_manager.o(i.im_peer_id_get_by_conn_handle)
    i.im_peer_id_get_by_master_id            0x0001e3dc   Section        0  id_manager.o(i.im_peer_id_get_by_master_id)
    i.in_pin_handler                         0x0001e420   Section        0  main.o(i.in_pin_handler)
    i.init_execute                           0x0001e460   Section        0  fds.o(i.init_execute)
    init_execute                             0x0001e461   Thumb Code   174  fds.o(i.init_execute)
    i.intern_softdevice_events_execute       0x0001e520   Section        0  softdevice_handler.o(i.intern_softdevice_events_execute)
    i.is_conn_params_ok                      0x0001e5a0   Section        0  ble_conn_params.o(i.is_conn_params_ok)
    is_conn_params_ok                        0x0001e5a1   Thumb Code    24  ble_conn_params.o(i.is_conn_params_ok)
    i.is_manual_peripheral_setup_needed      0x0001e5bc   Section        0  system_nrf51.o(i.is_manual_peripheral_setup_needed)
    is_manual_peripheral_setup_needed        0x0001e5bd   Thumb Code    66  system_nrf51.o(i.is_manual_peripheral_setup_needed)
    i.is_valid_irk                           0x0001e604   Section        0  id_manager.o(i.is_valid_irk)
    i.is_word_aligned                        0x0001e61a   Section        0  fds.o(i.is_word_aligned)
    is_word_aligned                          0x0001e61b   Thumb Code    12  fds.o(i.is_word_aligned)
    i.link_secure                            0x0001e628   Section        0  security_manager.o(i.link_secure)
    link_secure                              0x0001e629   Thumb Code   148  security_manager.o(i.link_secure)
    i.link_secure_central                    0x0001e6c4   Section        0  security_dispatcher.o(i.link_secure_central)
    link_secure_central                      0x0001e6c5   Thumb Code   130  security_dispatcher.o(i.link_secure_central)
    i.link_secure_central_existing_peer      0x0001e74c   Section        0  security_dispatcher.o(i.link_secure_central_existing_peer)
    link_secure_central_existing_peer        0x0001e74d   Thumb Code   198  security_dispatcher.o(i.link_secure_central_existing_peer)
    i.link_secure_central_new_peer           0x0001e814   Section        0  security_dispatcher.o(i.link_secure_central_new_peer)
    link_secure_central_new_peer             0x0001e815   Thumb Code   110  security_dispatcher.o(i.link_secure_central_new_peer)
    i.link_secure_failure                    0x0001e888   Section        0  security_dispatcher.o(i.link_secure_failure)
    link_secure_failure                      0x0001e889   Thumb Code    72  security_dispatcher.o(i.link_secure_failure)
    i.link_secure_pending_process            0x0001e8d8   Section        0  security_manager.o(i.link_secure_pending_process)
    link_secure_pending_process              0x0001e8d9   Thumb Code    86  security_manager.o(i.link_secure_pending_process)
    i.list_deletions_handler                 0x0001e934   Section        0  app_timer.o(i.list_deletions_handler)
    list_deletions_handler                   0x0001e935   Thumb Code   162  app_timer.o(i.list_deletions_handler)
    i.list_insertions_handler                0x0001e9e0   Section        0  app_timer.o(i.list_insertions_handler)
    list_insertions_handler                  0x0001e9e1   Thumb Code   178  app_timer.o(i.list_insertions_handler)
    i.local_db_apply_in_evt                  0x0001ea9c   Section        0  gatt_cache_manager.o(i.local_db_apply_in_evt)
    local_db_apply_in_evt                    0x0001ea9d   Thumb Code   106  gatt_cache_manager.o(i.local_db_apply_in_evt)
    i.local_db_update_in_evt                 0x0001eb14   Section        0  gatt_cache_manager.o(i.local_db_update_in_evt)
    local_db_update_in_evt                   0x0001eb15   Thumb Code   112  gatt_cache_manager.o(i.local_db_update_in_evt)
    i.lock_by_mask                           0x0001eb8c   Section        0  pm_mutex.o(i.lock_by_mask)
    lock_by_mask                             0x0001eb8d   Thumb Code    50  pm_mutex.o(i.lock_by_mask)
    i.main                                   0x0001ebc0   Section        0  main.o(i.main)
    i.manuf_specific_data_encode             0x0001ece0   Section        0  ble_advdata.o(i.manuf_specific_data_encode)
    manuf_specific_data_encode               0x0001ece1   Thumb Code   104  ble_advdata.o(i.manuf_specific_data_encode)
    i.name_encode                            0x0001ed48   Section        0  ble_advdata.o(i.name_encode)
    name_encode                              0x0001ed49   Thumb Code   158  ble_advdata.o(i.name_encode)
    i.new_connection                         0x0001ede8   Section        0  id_manager.o(i.new_connection)
    i.next_id_get                            0x0001ee44   Section        0  peer_id.o(i.next_id_get)
    i.nrf_bitmask_bit_is_set                 0x0001ee78   Section        0  nrf_drv_gpiote.o(i.nrf_bitmask_bit_is_set)
    nrf_bitmask_bit_is_set                   0x0001ee79   Thumb Code    16  nrf_drv_gpiote.o(i.nrf_bitmask_bit_is_set)
    i.nrf_ble_gatt_init                      0x0001ee88   Section        0  nrf_ble_gatt.o(i.nrf_ble_gatt_init)
    i.nrf_ble_gatt_on_ble_evt                0x0001ee8c   Section        0  nrf_ble_gatt.o(i.nrf_ble_gatt_on_ble_evt)
    i.nrf_clock_event_check                  0x0001ee8e   Section        0  nrf_drv_clock.o(i.nrf_clock_event_check)
    nrf_clock_event_check                    0x0001ee8f   Thumb Code    16  nrf_drv_clock.o(i.nrf_clock_event_check)
    i.nrf_delay_us                           0x0001eea0   Section        0  app_timer.o(i.nrf_delay_us)
    nrf_delay_us                             0x0001eea1   Thumb Code    38  app_timer.o(i.nrf_delay_us)
    i.nrf_drv_clock_init                     0x0001eed0   Section        0  nrf_drv_clock.o(i.nrf_drv_clock_init)
    i.nrf_drv_clock_on_sd_enable             0x0001ef18   Section        0  nrf_drv_clock.o(i.nrf_drv_clock_on_sd_enable)
    i.nrf_drv_clock_on_soc_event             0x0001ef4c   Section        0  nrf_drv_clock.o(i.nrf_drv_clock_on_soc_event)
    i.nrf_drv_common_irq_enable              0x0001ef58   Section        0  nrf_drv_common.o(i.nrf_drv_common_irq_enable)
    i.nrf_drv_gpiote_in_event_enable         0x0001efb8   Section        0  nrf_drv_gpiote.o(i.nrf_drv_gpiote_in_event_enable)
    i.nrf_drv_gpiote_in_init                 0x0001f050   Section        0  nrf_drv_gpiote.o(i.nrf_drv_gpiote_in_init)
    i.nrf_drv_gpiote_init                    0x0001f0f8   Section        0  nrf_drv_gpiote.o(i.nrf_drv_gpiote_init)
    i.nrf_drv_gpiote_is_init                 0x0001f154   Section        0  nrf_drv_gpiote.o(i.nrf_drv_gpiote_is_init)
    i.nrf_gpio_cfg                           0x0001f164   Section        0  nrf_drv_gpiote.o(i.nrf_gpio_cfg)
    nrf_gpio_cfg                             0x0001f165   Thumb Code    40  nrf_drv_gpiote.o(i.nrf_gpio_cfg)
    i.nrf_gpio_cfg_output                    0x0001f18c   Section        0  main.o(i.nrf_gpio_cfg_output)
    nrf_gpio_cfg_output                      0x0001f18d   Thumb Code    20  main.o(i.nrf_gpio_cfg_output)
    i.nrf_gpio_cfg_sense_set                 0x0001f1a0   Section        0  bsp.o(i.nrf_gpio_cfg_sense_set)
    nrf_gpio_cfg_sense_set                   0x0001f1a1   Thumb Code    34  bsp.o(i.nrf_gpio_cfg_sense_set)
    i.nrf_gpio_cfg_sense_set                 0x0001f1c2   Section        0  nrf_drv_gpiote.o(i.nrf_gpio_cfg_sense_set)
    nrf_gpio_cfg_sense_set                   0x0001f1c3   Thumb Code    34  nrf_drv_gpiote.o(i.nrf_gpio_cfg_sense_set)
    i.nrf_gpio_pin_write                     0x0001f1e4   Section        0  boards.o(i.nrf_gpio_pin_write)
    nrf_gpio_pin_write                       0x0001f1e5   Thumb Code    18  boards.o(i.nrf_gpio_pin_write)
    i.nrf_gpio_ports_read                    0x0001f1fc   Section        0  nrf_drv_gpiote.o(i.nrf_gpio_ports_read)
    nrf_gpio_ports_read                      0x0001f1fd   Thumb Code    36  nrf_drv_gpiote.o(i.nrf_gpio_ports_read)
    i.nrf_gpiote_event_clear                 0x0001f224   Section        0  nrf_drv_gpiote.o(i.nrf_gpiote_event_clear)
    nrf_gpiote_event_clear                   0x0001f225   Thumb Code    10  nrf_drv_gpiote.o(i.nrf_gpiote_event_clear)
    i.nrf_gpiote_event_is_set                0x0001f234   Section        0  nrf_drv_gpiote.o(i.nrf_gpiote_event_is_set)
    nrf_gpiote_event_is_set                  0x0001f235   Thumb Code    14  nrf_drv_gpiote.o(i.nrf_gpiote_event_is_set)
    i.nrf_uart_event_check                   0x0001f248   Section        0  nrf_drv_uart.o(i.nrf_uart_event_check)
    nrf_uart_event_check                     0x0001f249   Thumb Code    10  nrf_drv_uart.o(i.nrf_uart_event_check)
    i.nrf_uart_int_enable_check              0x0001f252   Section        0  nrf_drv_uart.o(i.nrf_uart_int_enable_check)
    nrf_uart_int_enable_check                0x0001f253   Thumb Code    16  nrf_drv_uart.o(i.nrf_uart_int_enable_check)
    i.on_adv_evt                             0x0001f262   Section        0  main.o(i.on_adv_evt)
    on_adv_evt                               0x0001f263   Thumb Code    32  main.o(i.on_adv_evt)
    i.on_ble_evt                             0x0001f284   Section        0  main.o(i.on_ble_evt)
    on_ble_evt                               0x0001f285   Thumb Code   154  main.o(i.on_ble_evt)
    i.on_conn_params_evt                     0x0001f324   Section        0  main.o(i.on_conn_params_evt)
    on_conn_params_evt                       0x0001f325   Thumb Code    26  main.o(i.on_conn_params_evt)
    i.on_operation_success                   0x0001f344   Section        0  fstorage.o(i.on_operation_success)
    on_operation_success                     0x0001f345   Thumb Code    80  fstorage.o(i.on_operation_success)
    i.op_enqueue                             0x0001f398   Section        0  fds.o(i.op_enqueue)
    op_enqueue                               0x0001f399   Thumb Code   114  fds.o(i.op_enqueue)
    i.page_offsets_update                    0x0001f410   Section        0  fds.o(i.page_offsets_update)
    page_offsets_update                      0x0001f411   Thumb Code    18  fds.o(i.page_offsets_update)
    i.page_scan                              0x0001f424   Section        0  fds.o(i.page_scan)
    page_scan                                0x0001f425   Thumb Code    84  fds.o(i.page_scan)
    i.page_tag_write_data                    0x0001f47c   Section        0  fds.o(i.page_tag_write_data)
    page_tag_write_data                      0x0001f47d   Thumb Code    20  fds.o(i.page_tag_write_data)
    i.page_tag_write_swap                    0x0001f498   Section        0  fds.o(i.page_tag_write_swap)
    page_tag_write_swap                      0x0001f499   Thumb Code    22  fds.o(i.page_tag_write_swap)
    i.pages_init                             0x0001f4bc   Section        0  fds.o(i.pages_init)
    pages_init                               0x0001f4bd   Thumb Code   220  fds.o(i.pages_init)
    i.pairing_failure                        0x0001f5ac   Section        0  security_dispatcher.o(i.pairing_failure)
    pairing_failure                          0x0001f5ad   Thumb Code   100  security_dispatcher.o(i.pairing_failure)
    i.params_reply_pending_process           0x0001f618   Section        0  security_manager.o(i.params_reply_pending_process)
    params_reply_pending_process             0x0001f619   Thumb Code    60  security_manager.o(i.params_reply_pending_process)
    i.pdb_evt_send                           0x0001f654   Section        0  peer_database.o(i.pdb_evt_send)
    pdb_evt_send                             0x0001f655   Thumb Code    24  peer_database.o(i.pdb_evt_send)
    i.pdb_init                               0x0001f670   Section        0  peer_database.o(i.pdb_init)
    i.pdb_next_deleted_peer_id_get           0x0001f6bc   Section        0  peer_database.o(i.pdb_next_deleted_peer_id_get)
    i.pdb_next_peer_id_get                   0x0001f6c4   Section        0  peer_database.o(i.pdb_next_peer_id_get)
    i.pdb_pds_evt_handler                    0x0001f6cc   Section        0  peer_database.o(i.pdb_pds_evt_handler)
    i.pdb_peer_allocate                      0x0001f800   Section        0  peer_database.o(i.pdb_peer_allocate)
    i.pdb_peer_data_ptr_get                  0x0001f808   Section        0  peer_database.o(i.pdb_peer_data_ptr_get)
    i.pdb_peer_free                          0x0001f812   Section        0  peer_database.o(i.pdb_peer_free)
    i.pdb_raw_store                          0x0001f85c   Section        0  peer_database.o(i.pdb_raw_store)
    i.pdb_write_buf_get                      0x0001f868   Section        0  peer_database.o(i.pdb_write_buf_get)
    i.pdb_write_buf_release                  0x0001f970   Section        0  peer_database.o(i.pdb_write_buf_release)
    i.pdb_write_buf_store                    0x0001f99c   Section        0  peer_database.o(i.pdb_write_buf_store)
    i.pdb_write_buf_store_prepare            0x0001fa64   Section        0  peer_database.o(i.pdb_write_buf_store_prepare)
    i.pds_evt_send                           0x0001facc   Section        0  peer_data_storage.o(i.pds_evt_send)
    pds_evt_send                             0x0001facd   Thumb Code     6  peer_data_storage.o(i.pds_evt_send)
    i.pds_init                               0x0001fad8   Section        0  peer_data_storage.o(i.pds_init)
    i.pds_next_deleted_peer_id_get           0x0001fb48   Section        0  peer_data_storage.o(i.pds_next_deleted_peer_id_get)
    i.pds_next_peer_id_get                   0x0001fb50   Section        0  peer_data_storage.o(i.pds_next_peer_id_get)
    i.pds_peer_data_iterate                  0x0001fb58   Section        0  peer_data_storage.o(i.pds_peer_data_iterate)
    i.pds_peer_data_iterate_prepare          0x0001fbac   Section        0  peer_data_storage.o(i.pds_peer_data_iterate_prepare)
    i.pds_peer_data_read                     0x0001fbbc   Section        0  peer_data_storage.o(i.pds_peer_data_read)
    i.pds_peer_data_store                    0x0001fc2c   Section        0  peer_data_storage.o(i.pds_peer_data_store)
    i.pds_peer_id_allocate                   0x0001fcdc   Section        0  peer_data_storage.o(i.pds_peer_id_allocate)
    i.pds_peer_id_free                       0x0001fcec   Section        0  peer_data_storage.o(i.pds_peer_id_free)
    i.pds_peer_id_is_allocated               0x0001fd02   Section        0  peer_data_storage.o(i.pds_peer_id_is_allocated)
    i.pds_space_reserve                      0x0001fd0a   Section        0  peer_data_storage.o(i.pds_space_reserve)
    i.pds_space_reserve_cancel               0x0001fd3a   Section        0  peer_data_storage.o(i.pds_space_reserve_cancel)
    i.peer_data_const_point_to_buffer        0x0001fd4a   Section        0  peer_database.o(i.peer_data_const_point_to_buffer)
    peer_data_const_point_to_buffer          0x0001fd4b   Thumb Code    10  peer_database.o(i.peer_data_const_point_to_buffer)
    i.peer_data_delete                       0x0001fd54   Section        0  peer_data_storage.o(i.peer_data_delete)
    peer_data_delete                         0x0001fd55   Thumb Code   118  peer_data_storage.o(i.peer_data_delete)
    i.peer_data_find                         0x0001fdd4   Section        0  peer_data_storage.o(i.peer_data_find)
    peer_data_find                           0x0001fdd5   Thumb Code    48  peer_data_storage.o(i.peer_data_find)
    i.peer_data_id_is_valid                  0x0001fe04   Section        0  peer_data_storage.o(i.peer_data_id_is_valid)
    peer_data_id_is_valid                    0x0001fe05   Thumb Code    32  peer_data_storage.o(i.peer_data_id_is_valid)
    i.peer_data_point_to_buffer              0x0001fe24   Section        0  peer_database.o(i.peer_data_point_to_buffer)
    peer_data_point_to_buffer                0x0001fe25   Thumb Code    20  peer_database.o(i.peer_data_point_to_buffer)
    i.peer_id_allocate                       0x0001fe38   Section        0  peer_id.o(i.peer_id_allocate)
    i.peer_id_delete                         0x0001fe48   Section        0  peer_id.o(i.peer_id_delete)
    i.peer_id_free                           0x0001fe70   Section        0  peer_id.o(i.peer_id_free)
    i.peer_id_get_next_deleted               0x0001fe8c   Section        0  peer_id.o(i.peer_id_get_next_deleted)
    i.peer_id_get_next_used                  0x0001fe9c   Section        0  peer_id.o(i.peer_id_get_next_used)
    i.peer_id_init                           0x0001fed0   Section        0  peer_id.o(i.peer_id_init)
    i.peer_id_is_allocated                   0x0001fef8   Section        0  peer_id.o(i.peer_id_is_allocated)
    i.peer_id_is_deleted                     0x0001ff10   Section        0  peer_id.o(i.peer_id_is_deleted)
    i.peer_id_set                            0x0001ff28   Section        0  id_manager.o(i.peer_id_set)
    peer_id_set                              0x0001ff29   Thumb Code    22  id_manager.o(i.peer_id_set)
    i.peer_id_to_file_id                     0x0001ff44   Section        0  peer_data_storage.o(i.peer_id_to_file_id)
    peer_id_to_file_id                       0x0001ff45   Thumb Code    10  peer_data_storage.o(i.peer_id_to_file_id)
    i.peer_manager_init                      0x0001ff50   Section        0  main.o(i.peer_manager_init)
    peer_manager_init                        0x0001ff51   Thumb Code   128  main.o(i.peer_manager_init)
    i.pin_in_use_by_port                     0x0001ffd8   Section        0  nrf_drv_gpiote.o(i.pin_in_use_by_port)
    pin_in_use_by_port                       0x0001ffd9   Thumb Code    20  nrf_drv_gpiote.o(i.pin_in_use_by_port)
    i.pin_in_use_by_te                       0x0001fff0   Section        0  nrf_drv_gpiote.o(i.pin_in_use_by_te)
    pin_in_use_by_te                         0x0001fff1   Thumb Code    20  nrf_drv_gpiote.o(i.pin_in_use_by_te)
    i.pm_buffer_block_acquire                0x00020008   Section        0  pm_buffer.o(i.pm_buffer_block_acquire)
    i.pm_buffer_init                         0x00020066   Section        0  pm_buffer.o(i.pm_buffer_init)
    i.pm_buffer_ptr_get                      0x000200a8   Section        0  pm_buffer.o(i.pm_buffer_ptr_get)
    i.pm_buffer_release                      0x000200d6   Section        0  pm_buffer.o(i.pm_buffer_release)
    i.pm_conn_sec_config_reply               0x00020100   Section        0  peer_manager.o(i.pm_conn_sec_config_reply)
    i.pm_evt_handler                         0x00020108   Section        0  main.o(i.pm_evt_handler)
    pm_evt_handler                           0x00020109   Thumb Code    84  main.o(i.pm_evt_handler)
    i.pm_gcm_evt_handler                     0x0002015c   Section        0  peer_manager.o(i.pm_gcm_evt_handler)
    i.pm_im_evt_handler                      0x000201dc   Section        0  peer_manager.o(i.pm_im_evt_handler)
    i.pm_init                                0x0002022c   Section        0  peer_manager.o(i.pm_init)
    i.pm_local_database_has_changed          0x0002029c   Section        0  peer_manager.o(i.pm_local_database_has_changed)
    i.pm_mutex_init                          0x000202b0   Section        0  pm_mutex.o(i.pm_mutex_init)
    i.pm_mutex_lock                          0x000202c0   Section        0  pm_mutex.o(i.pm_mutex_lock)
    i.pm_mutex_lock_first_available          0x000202dc   Section        0  pm_mutex.o(i.pm_mutex_lock_first_available)
    i.pm_mutex_lock_status_get               0x00020310   Section        0  pm_mutex.o(i.pm_mutex_lock_status_get)
    i.pm_mutex_unlock                        0x00020328   Section        0  pm_mutex.o(i.pm_mutex_unlock)
    i.pm_on_ble_evt                          0x00020360   Section        0  peer_manager.o(i.pm_on_ble_evt)
    i.pm_pdb_evt_handler                     0x00020384   Section        0  peer_manager.o(i.pm_pdb_evt_handler)
    i.pm_peer_delete                         0x000204c0   Section        0  peer_manager.o(i.pm_peer_delete)
    i.pm_peers_delete                        0x000204d8   Section        0  peer_manager.o(i.pm_peers_delete)
    i.pm_register                            0x00020514   Section        0  peer_manager.o(i.pm_register)
    i.pm_sec_params_set                      0x00020544   Section        0  peer_manager.o(i.pm_sec_params_set)
    i.pm_sm_evt_handler                      0x0002055c   Section        0  peer_manager.o(i.pm_sm_evt_handler)
    i.pnp_id_encode                          0x000206a8   Section        0  ble_dis.o(i.pnp_id_encode)
    pnp_id_encode                            0x000206a9   Thumb Code    54  ble_dis.o(i.pnp_id_encode)
    i.queue_advance                          0x000206e0   Section        0  fstorage.o(i.queue_advance)
    queue_advance                            0x000206e1   Thumb Code    36  fstorage.o(i.queue_advance)
    i.queue_get_next_free                    0x0002070c   Section        0  fstorage.o(i.queue_get_next_free)
    queue_get_next_free                      0x0002070d   Thumb Code    50  fstorage.o(i.queue_get_next_free)
    i.queue_process                          0x00020744   Section        0  fds.o(i.queue_process)
    queue_process                            0x00020745   Thumb Code   176  fds.o(i.queue_process)
    i.queue_process                          0x000207fc   Section        0  fstorage.o(i.queue_process)
    queue_process                            0x000207fd   Thumb Code   100  fstorage.o(i.queue_process)
    i.queue_start                            0x00020868   Section        0  fds.o(i.queue_start)
    queue_start                              0x00020869   Thumb Code    24  fds.o(i.queue_start)
    i.queue_start                            0x00020884   Section        0  fstorage.o(i.queue_start)
    queue_start                              0x00020885   Thumb Code    24  fstorage.o(i.queue_start)
    i.record_find                            0x000208a0   Section        0  fds.o(i.record_find)
    record_find                              0x000208a1   Thumb Code   122  fds.o(i.record_find)
    i.record_find_by_desc                    0x00020924   Section        0  fds.o(i.record_find_by_desc)
    record_find_by_desc                      0x00020925   Thumb Code   152  fds.o(i.record_find_by_desc)
    i.record_find_next                       0x000209c4   Section        0  fds.o(i.record_find_next)
    record_find_next                         0x000209c5   Thumb Code    78  fds.o(i.record_find_next)
    i.record_header_flag_dirty               0x00020a18   Section        0  fds.o(i.record_header_flag_dirty)
    record_header_flag_dirty                 0x00020a19   Thumb Code    42  fds.o(i.record_header_flag_dirty)
    i.record_key_to_peer_data_id             0x00020a50   Section        0  peer_data_storage.o(i.record_key_to_peer_data_id)
    record_key_to_peer_data_id               0x00020a51   Thumb Code    10  peer_data_storage.o(i.record_key_to_peer_data_id)
    i.record_key_within_pm_range             0x00020a5c   Section        0  peer_data_storage.o(i.record_key_within_pm_range)
    record_key_within_pm_range               0x00020a5d   Thumb Code    20  peer_data_storage.o(i.record_key_within_pm_range)
    i.record_write_chunk                     0x00020a74   Section        0  fds.o(i.record_write_chunk)
    record_write_chunk                       0x00020a75   Thumb Code    84  fds.o(i.record_write_chunk)
    i.release                                0x00020ad0   Section        0  peer_id.o(i.release)
    release                                  0x00020ad1   Thumb Code    18  peer_id.o(i.release)
    i.rr_interval_timeout_handler            0x00020ae4   Section        0  main.o(i.rr_interval_timeout_handler)
    rr_interval_timeout_handler              0x00020ae5   Thumb Code   132  main.o(i.rr_interval_timeout_handler)
    i.rtc1_stop                              0x00020b70   Section        0  app_timer.o(i.rtc1_stop)
    rtc1_stop                                0x00020b71   Thumb Code    50  app_timer.o(i.rtc1_stop)
    i.rx_byte                                0x00020bb4   Section        0  nrf_drv_uart.o(i.rx_byte)
    rx_byte                                  0x00020bb5   Thumb Code    38  nrf_drv_uart.o(i.rx_byte)
    i.rx_done_event                          0x00020bda   Section        0  nrf_drv_uart.o(i.rx_done_event)
    rx_done_event                            0x00020bdb   Thumb Code    20  nrf_drv_uart.o(i.rx_done_event)
    i.sd_nvic_EnableIRQ                      0x00020bf0   Section        0  softdevice_handler.o(i.sd_nvic_EnableIRQ)
    sd_nvic_EnableIRQ                        0x00020bf1   Thumb Code   112  softdevice_handler.o(i.sd_nvic_EnableIRQ)
    i.sdk_mapped_flags_bulk_update_by_key    0x00020c74   Section        0  sdk_mapped_flags.o(i.sdk_mapped_flags_bulk_update_by_key)
    i.sdk_mapped_flags_first_key_index_get   0x00020cbc   Section        0  sdk_mapped_flags.o(i.sdk_mapped_flags_first_key_index_get)
    i.sdk_mapped_flags_get_by_index          0x00020ce4   Section        0  sdk_mapped_flags.o(i.sdk_mapped_flags_get_by_index)
    sdk_mapped_flags_get_by_index            0x00020ce5   Thumb Code    16  sdk_mapped_flags.o(i.sdk_mapped_flags_get_by_index)
    i.sdk_mapped_flags_get_by_key            0x00020cf4   Section        0  sdk_mapped_flags.o(i.sdk_mapped_flags_get_by_key)
    i.sdk_mapped_flags_key_list_get          0x00020d1a   Section        0  sdk_mapped_flags.o(i.sdk_mapped_flags_key_list_get)
    i.sdk_mapped_flags_update_by_key         0x00020d60   Section        0  sdk_mapped_flags.o(i.sdk_mapped_flags_update_by_key)
    i.sec_info_request_process               0x00020d70   Section        0  security_dispatcher.o(i.sec_info_request_process)
    sec_info_request_process                 0x00020d71   Thumb Code   172  security_dispatcher.o(i.sec_info_request_process)
    i.sec_params_verify                      0x00020e24   Section        0  security_manager.o(i.sec_params_verify)
    sec_params_verify                        0x00020e25   Thumb Code   118  security_manager.o(i.sec_params_verify)
    i.sec_proc_start                         0x00020e9c   Section        0  security_dispatcher.o(i.sec_proc_start)
    sec_proc_start                           0x00020e9d   Thumb Code    72  security_dispatcher.o(i.sec_proc_start)
    i.sec_start_send                         0x00020ee8   Section        0  security_dispatcher.o(i.sec_start_send)
    sec_start_send                           0x00020ee9   Thumb Code    24  security_dispatcher.o(i.sec_start_send)
    i.send_event                             0x00020f04   Section        0  fstorage.o(i.send_event)
    send_event                               0x00020f05   Thumb Code    72  fstorage.o(i.send_event)
    i.sensor_contact_detected_timeout_handler 0x00020f4c   Section        0  main.o(i.sensor_contact_detected_timeout_handler)
    sensor_contact_detected_timeout_handler  0x00020f4d   Thumb Code    20  main.o(i.sensor_contact_detected_timeout_handler)
    i.sensor_simulator_init                  0x00020f68   Section        0  main.o(i.sensor_simulator_init)
    sensor_simulator_init                    0x00020f69   Thumb Code    84  main.o(i.sensor_simulator_init)
    i.sensorsim_decrement                    0x00020fc4   Section        0  sensorsim.o(i.sensorsim_decrement)
    i.sensorsim_increment                    0x00020fe0   Section        0  sensorsim.o(i.sensorsim_increment)
    i.sensorsim_init                         0x00020ffc   Section        0  sensorsim.o(i.sensorsim_init)
    i.sensorsim_measure                      0x00021014   Section        0  sensorsim.o(i.sensorsim_measure)
    i.service_changed_pending_flags_check    0x00021030   Section        0  gatt_cache_manager.o(i.service_changed_pending_flags_check)
    service_changed_pending_flags_check      0x00021031   Thumb Code    84  gatt_cache_manager.o(i.service_changed_pending_flags_check)
    i.service_changed_pending_set            0x00021088   Section        0  gatts_cache_manager.o(i.service_changed_pending_set)
    service_changed_pending_set              0x00021089   Thumb Code    54  gatts_cache_manager.o(i.service_changed_pending_set)
    i.service_changed_send_in_evt            0x000210cc   Section        0  gatt_cache_manager.o(i.service_changed_send_in_evt)
    service_changed_send_in_evt              0x000210cd   Thumb Code   140  gatt_cache_manager.o(i.service_changed_send_in_evt)
    i.service_data_encode                    0x00021164   Section        0  ble_advdata.o(i.service_data_encode)
    service_data_encode                      0x00021165   Thumb Code   142  ble_advdata.o(i.service_data_encode)
    i.services_init                          0x000211f4   Section        0  main.o(i.services_init)
    services_init                            0x000211f5   Thumb Code   214  main.o(i.services_init)
    i.set_adv_mode_fast                      0x000212e4   Section        0  ble_advertising.o(i.set_adv_mode_fast)
    set_adv_mode_fast                        0x000212e5   Thumb Code    80  ble_advertising.o(i.set_adv_mode_fast)
    i.set_adv_mode_slow                      0x0002133c   Section        0  ble_advertising.o(i.set_adv_mode_slow)
    set_adv_mode_slow                        0x0002133d   Thumb Code    76  ble_advertising.o(i.set_adv_mode_slow)
    i.sleep_mode_enter                       0x00021390   Section        0  main.o(i.sleep_mode_enter)
    sleep_mode_enter                         0x00021391   Thumb Code    40  main.o(i.sleep_mode_enter)
    i.sm_ble_evt_handler                     0x000213b8   Section        0  security_manager.o(i.sm_ble_evt_handler)
    i.sm_conn_sec_config_reply               0x000213cc   Section        0  security_manager.o(i.sm_conn_sec_config_reply)
    i.sm_init                                0x000213e8   Section        0  security_manager.o(i.sm_init)
    i.sm_pdb_evt_handler                     0x00021438   Section        0  security_manager.o(i.sm_pdb_evt_handler)
    i.sm_sec_params_set                      0x0002146c   Section        0  security_manager.o(i.sm_sec_params_set)
    i.sm_smd_evt_handler                     0x0002149c   Section        0  security_manager.o(i.sm_smd_evt_handler)
    i.smd_ble_evt_handler                    0x00021518   Section        0  security_dispatcher.o(i.smd_ble_evt_handler)
    i.smd_init                               0x000215fc   Section        0  security_dispatcher.o(i.smd_init)
    i.smd_link_secure                        0x00021638   Section        0  security_dispatcher.o(i.smd_link_secure)
    i.smd_params_reply                       0x00021668   Section        0  security_dispatcher.o(i.smd_params_reply)
    i.smd_params_reply_perform               0x00021778   Section        0  security_manager.o(i.smd_params_reply_perform)
    smd_params_reply_perform                 0x00021779   Thumb Code   126  security_manager.o(i.smd_params_reply_perform)
    i.smd_pdb_evt_handler                    0x00021800   Section        0  security_dispatcher.o(i.smd_pdb_evt_handler)
    i.softdevice_ble_evt_handler_set         0x00021834   Section        0  softdevice_handler.o(i.softdevice_ble_evt_handler_set)
    i.softdevice_enable                      0x00021848   Section        0  softdevice_handler.o(i.softdevice_enable)
    i.softdevice_enable_get_default_config   0x0002185c   Section        0  softdevice_handler.o(i.softdevice_enable_get_default_config)
    i.softdevice_fault_handler               0x00021884   Section        0  softdevice_handler.o(i.softdevice_fault_handler)
    i.softdevice_handler_init                0x0002188c   Section        0  softdevice_handler.o(i.softdevice_handler_init)
    i.softdevice_handler_is_enabled          0x000218e4   Section        0  softdevice_handler.o(i.softdevice_handler_is_enabled)
    i.softdevice_sys_evt_handler_set         0x000218f0   Section        0  softdevice_handler.o(i.softdevice_sys_evt_handler_set)
    i.sys_evt_dispatch                       0x00021904   Section        0  main.o(i.sys_evt_dispatch)
    sys_evt_dispatch                         0x00021905   Thumb Code    16  main.o(i.sys_evt_dispatch)
    i.sys_id_encode                          0x00021914   Section        0  ble_dis.o(i.sys_id_encode)
    sys_id_encode                            0x00021915   Thumb Code    78  ble_dis.o(i.sys_id_encode)
    i.timer_list_handler                     0x00021964   Section        0  app_timer.o(i.timer_list_handler)
    timer_list_handler                       0x00021965   Thumb Code   128  app_timer.o(i.timer_list_handler)
    i.timer_list_handler_sched               0x000219e8   Section        0  app_timer.o(i.timer_list_handler_sched)
    timer_list_handler_sched                 0x000219e9   Thumb Code    10  app_timer.o(i.timer_list_handler_sched)
    i.timer_list_insert                      0x000219f8   Section        0  app_timer.o(i.timer_list_insert)
    timer_list_insert                        0x000219f9   Thumb Code    60  app_timer.o(i.timer_list_insert)
    i.timer_stop_op_schedule                 0x00021a38   Section        0  app_timer.o(i.timer_stop_op_schedule)
    timer_stop_op_schedule                   0x00021a39   Thumb Code    68  app_timer.o(i.timer_stop_op_schedule)
    i.timer_timeouts_check                   0x00021a80   Section        0  app_timer.o(i.timer_timeouts_check)
    timer_timeouts_check                     0x00021a81   Thumb Code   118  app_timer.o(i.timer_timeouts_check)
    i.timers_init                            0x00021b00   Section        0  main.o(i.timers_init)
    timers_init                              0x00021b01   Thumb Code   102  main.o(i.timers_init)
    i.tx_byte                                0x00021b80   Section        0  nrf_drv_uart.o(i.tx_byte)
    tx_byte                                  0x00021b81   Thumb Code    30  nrf_drv_uart.o(i.tx_byte)
    i.tx_done_event                          0x00021b9e   Section        0  nrf_drv_uart.o(i.tx_done_event)
    tx_done_event                            0x00021b9f   Thumb Code    24  nrf_drv_uart.o(i.tx_done_event)
    i.uart_irq_handler                       0x00021bb6   Section        0  nrf_drv_uart.o(i.uart_irq_handler)
    uart_irq_handler                         0x00021bb7   Thumb Code   296  nrf_drv_uart.o(i.uart_irq_handler)
    i.uint16_encode                          0x00021cde   Section        0  ble_advdata.o(i.uint16_encode)
    uint16_encode                            0x00021cdf   Thumb Code    10  ble_advdata.o(i.uint16_encode)
    i.update_timeout_handler                 0x00021ce8   Section        0  ble_conn_params.o(i.update_timeout_handler)
    update_timeout_handler                   0x00021ce9   Thumb Code    86  ble_conn_params.o(i.update_timeout_handler)
    i.user_flag_is_acquired                  0x00021d4c   Section        0  ble_conn_state.o(i.user_flag_is_acquired)
    user_flag_is_acquired                    0x00021d4d   Thumb Code    20  ble_conn_state.o(i.user_flag_is_acquired)
    i.user_op_alloc                          0x00021d64   Section        0  app_timer.o(i.user_op_alloc)
    user_op_alloc                            0x00021d65   Thumb Code    40  app_timer.o(i.user_op_alloc)
    i.uuid_list_encode                       0x00021d90   Section        0  ble_advdata.o(i.uuid_list_encode)
    uuid_list_encode                         0x00021d91   Thumb Code    48  ble_advdata.o(i.uuid_list_encode)
    i.uuid_list_sized_encode                 0x00021dc0   Section        0  ble_advdata.o(i.uuid_list_sized_encode)
    uuid_list_sized_encode                   0x00021dc1   Thumb Code   174  ble_advdata.o(i.uuid_list_sized_encode)
    i.whitelist_has_entries                  0x00021e70   Section        0  ble_advertising.o(i.whitelist_has_entries)
    whitelist_has_entries                    0x00021e71   Thumb Code    18  ble_advertising.o(i.whitelist_has_entries)
    i.write_buf_length_words_set             0x00021e88   Section        0  peer_database.o(i.write_buf_length_words_set)
    write_buf_length_words_set               0x00021e89   Thumb Code    36  peer_database.o(i.write_buf_length_words_set)
    i.write_buffer_record_find               0x00021eac   Section        0  peer_database.o(i.write_buffer_record_find)
    write_buffer_record_find                 0x00021ead   Thumb Code    36  peer_database.o(i.write_buffer_record_find)
    i.write_buffer_record_find_next          0x00021ed0   Section        0  peer_database.o(i.write_buffer_record_find_next)
    write_buffer_record_find_next            0x00021ed1   Thumb Code    34  peer_database.o(i.write_buffer_record_find_next)
    i.write_buffer_record_invalidate         0x00021ef8   Section        0  peer_database.o(i.write_buffer_record_invalidate)
    write_buffer_record_invalidate           0x00021ef9   Thumb Code    34  peer_database.o(i.write_buffer_record_invalidate)
    i.write_buffer_record_release            0x00021f1c   Section        0  peer_database.o(i.write_buffer_record_release)
    write_buffer_record_release              0x00021f1d   Thumb Code    36  peer_database.o(i.write_buffer_record_release)
    i.write_enqueue                          0x00021f44   Section        0  fds.o(i.write_enqueue)
    write_enqueue                            0x00021f45   Thumb Code   268  fds.o(i.write_enqueue)
    i.write_execute                          0x0002205c   Section        0  fds.o(i.write_execute)
    write_execute                            0x0002205d   Thumb Code   228  fds.o(i.write_execute)
    i.write_space_free                       0x00022150   Section        0  fds.o(i.write_space_free)
    write_space_free                         0x00022151   Thumb Code    16  fds.o(i.write_space_free)
    i.write_space_reserve                    0x00022164   Section        0  fds.o(i.write_space_reserve)
    write_space_reserve                      0x00022165   Thumb Code    70  fds.o(i.write_space_reserve)
    .constdata                               0x000221b0   Section       24  main.o(.constdata)
    m_battery_timer_id                       0x000221b0   Data           4  main.o(.constdata)
    m_heart_rate_timer_id                    0x000221b4   Data           4  main.o(.constdata)
    m_rr_interval_timer_id                   0x000221b8   Data           4  main.o(.constdata)
    m_sensor_contact_timer_id                0x000221bc   Data           4  main.o(.constdata)
    .constdata                               0x000221c8   Section        8  boards.o(.constdata)
    m_board_led_list                         0x000221c8   Data           4  boards.o(.constdata)
    m_board_btn_list                         0x000221cc   Data           4  boards.o(.constdata)
    .constdata                               0x000221d0   Section       44  bsp.o(.constdata)
    m_leds_timer_id                          0x000221d0   Data           4  bsp.o(.constdata)
    m_alert_timer_id                         0x000221d4   Data           4  bsp.o(.constdata)
    m_button_timer_id                        0x000221d8   Data           4  bsp.o(.constdata)
    app_buttons                              0x000221dc   Data          32  bsp.o(.constdata)
    .constdata                               0x000221fc   Section        4  ble_conn_params.o(.constdata)
    m_conn_params_timer_id                   0x000221fc   Data           4  ble_conn_params.o(.constdata)
    .constdata                               0x00022200   Section        4  gatts_cache_manager.o(.constdata)
    service_changed_pending                  0x00022200   Data           4  gatts_cache_manager.o(.constdata)
    .constdata                               0x00022204   Section       16  gatts_cache_manager.o(.constdata)
    .constdata                               0x00022214   Section        4  gatts_cache_manager.o(.constdata)
    service_changed_pending                  0x00022214   Data           4  gatts_cache_manager.o(.constdata)
    .constdata                               0x00022218   Section        8  id_manager.o(.constdata)
    m_evt_handlers                           0x00022218   Data           8  id_manager.o(.constdata)
    .constdata                               0x00022220   Section        4  peer_data_storage.o(.constdata)
    m_evt_handlers                           0x00022220   Data           4  peer_data_storage.o(.constdata)
    .constdata                               0x00022224   Section       20  peer_database.o(.constdata)
    m_evt_handlers                           0x00022224   Data          20  peer_database.o(.constdata)
    .constdata                               0x00022238   Section       68  security_dispatcher.o(.constdata)
    m_evt_handlers                           0x00022238   Data           8  security_dispatcher.o(.constdata)
    .constdata                               0x0002227c   Section        4  security_manager.o(.constdata)
    m_evt_handlers                           0x0002227c   Data           4  security_manager.o(.constdata)
    .constdata                               0x00022280   Section        4  nrf_drv_gpiote.o(.constdata)
    .constdata                               0x00022284   Section       20  fds.o(.constdata)
    m_fds_tl_dirty                           0x00022284   Data           4  fds.o(.constdata)
    page_tag_swap                            0x00022288   Data           8  fds.o(.constdata)
    page_tag_data                            0x00022290   Data           8  fds.o(.constdata)
    .data                                    0x200033b0   Section       44  main.o(.data)
    m_rr_interval_enabled                    0x200033b0   Data           1  main.o(.data)
    sensor_contact_detected                  0x200033b1   Data           1  main.o(.data)
    m_conn_handle                            0x200033b2   Data           2  main.o(.data)
    cnt                                      0x200033b4   Data           4  main.o(.data)
    m_battery_sim_state                      0x200033b8   Data           8  main.o(.data)
    m_heart_rate_sim_state                   0x200033c0   Data           8  main.o(.data)
    m_rr_interval_sim_state                  0x200033c8   Data           8  main.o(.data)
    m_adv_uuids                              0x200033d0   Data          12  main.o(.data)
    .data                                    0x200033dc   Section       20  bsp.o(.data)
    m_stable_state                           0x200033dc   Data           1  bsp.o(.data)
    m_leds_clear                             0x200033dd   Data           1  bsp.o(.data)
    current_long_push_pin_no                 0x200033de   Data           1  bsp.o(.data)
    m_app_ticks_per_100ms                    0x200033e0   Data           4  bsp.o(.data)
    m_indication_type                        0x200033e4   Data           4  bsp.o(.data)
    m_registered_callback                    0x200033e8   Data           4  bsp.o(.data)
    release_event_at_push                    0x200033ec   Data           4  bsp.o(.data)
    .data                                    0x200033f0   Section        8  bsp_btn_ble.o(.data)
    m_error_handler                          0x200033f0   Data           4  bsp_btn_ble.o(.data)
    m_num_connections                        0x200033f4   Data           4  bsp_btn_ble.o(.data)
    .data                                    0x200033f8   Section       48  ble_advertising.o(.data)
    m_initialized                            0x200033f8   Data           1  ble_advertising.o(.data)
    m_advertising_start_pending              0x200033f9   Data           1  ble_advertising.o(.data)
    m_adv_evt                                0x200033fa   Data           1  ble_advertising.o(.data)
    m_adv_mode_current                       0x200033fb   Data           1  ble_advertising.o(.data)
    m_peer_addr_reply_expected               0x200033fc   Data           1  ble_advertising.o(.data)
    m_whitelist_temporarily_disabled         0x200033fd   Data           1  ble_advertising.o(.data)
    m_whitelist_reply_expected               0x200033fe   Data           1  ble_advertising.o(.data)
    m_current_slave_link_conn_handle         0x20003400   Data           2  ble_advertising.o(.data)
    m_slave_conn_int                         0x20003402   Data           4  ble_advertising.o(.data)
    m_evt_handler                            0x20003408   Data           4  ble_advertising.o(.data)
    m_error_handler                          0x2000340c   Data           4  ble_advertising.o(.data)
    m_peer_address                           0x20003410   Data           7  ble_advertising.o(.data)
    m_whitelist                              0x20003418   Data          16  ble_advertising.o(.data)
    .data                                    0x20003428   Section       20  ble_conn_params.o(.data)
    m_change_param                           0x20003428   Data           1  ble_conn_params.o(.data)
    m_update_count                           0x20003429   Data           1  ble_conn_params.o(.data)
    m_conn_handle                            0x2000342a   Data           2  ble_conn_params.o(.data)
    m_preferred_conn_params                  0x2000342c   Data           8  ble_conn_params.o(.data)
    m_current_conn_params                    0x20003434   Data           8  ble_conn_params.o(.data)
    .data                                    0x2000343c   Section       12  gatt_cache_manager.o(.data)
    m_module_initialized                     0x2000343c   Data           1  gatt_cache_manager.o(.data)
    m_flag_local_db_update_pending           0x2000343d   Data           1  gatt_cache_manager.o(.data)
    m_flag_local_db_apply_pending            0x2000343e   Data           1  gatt_cache_manager.o(.data)
    m_flag_service_changed_pending           0x2000343f   Data           1  gatt_cache_manager.o(.data)
    m_flag_service_changed_sent              0x20003440   Data           1  gatt_cache_manager.o(.data)
    m_evt_handlers                           0x20003444   Data           4  gatt_cache_manager.o(.data)
    .data                                    0x20003448   Section       12  gatts_cache_manager.o(.data)
    m_module_initialized                     0x20003448   Data           1  gatts_cache_manager.o(.data)
    start_handle                             0x2000344a   Data           2  gatts_cache_manager.o(.data)
    m_current_sc_store_peer_id               0x2000344c   Data           2  gatts_cache_manager.o(.data)
    m_evt_handler                            0x20003450   Data           4  gatts_cache_manager.o(.data)
    .data                                    0x20003454   Section       10  id_manager.o(.data)
    m_module_initialized                     0x20003454   Data           1  id_manager.o(.data)
    m_conn_state_user_flag_id                0x20003455   Data           1  id_manager.o(.data)
    m_wlisted_peer_cnt                       0x20003456   Data           1  id_manager.o(.data)
    m_current_id_addr                        0x20003457   Data           7  id_manager.o(.data)
    .data                                    0x20003460   Section       12  peer_data_storage.o(.data)
    m_module_initialized                     0x20003460   Data           1  peer_data_storage.o(.data)
    m_peer_delete_queued                     0x20003461   Data           1  peer_data_storage.o(.data)
    m_peer_delete_ongoing                    0x20003462   Data           1  peer_data_storage.o(.data)
    m_fds_ftok                               0x20003464   Data           8  peer_data_storage.o(.data)
    .data                                    0x2000346c   Section        8  peer_database.o(.data)
    mutex_memory                             0x2000346c   Data           1  peer_database.o(.data)
    m_module_initialized                     0x2000346d   Data           1  peer_database.o(.data)
    m_n_writes                               0x20003470   Data           4  peer_database.o(.data)
    .data                                    0x20003474   Section       16  peer_manager.o(.data)
    m_module_initialized                     0x20003474   Data           1  peer_manager.o(.data)
    m_peer_rank_initialized                  0x20003475   Data           1  peer_manager.o(.data)
    m_deleting_all                           0x20003476   Data           1  peer_manager.o(.data)
    m_n_registrants                          0x20003477   Data           1  peer_manager.o(.data)
    m_pairing_flag_id                        0x20003478   Data           1  peer_manager.o(.data)
    m_bonding_flag_id                        0x20003479   Data           1  peer_manager.o(.data)
    m_highest_ranked_peer                    0x2000347a   Data           2  peer_manager.o(.data)
    m_peer_rank_token                        0x2000347c   Data           4  peer_manager.o(.data)
    m_current_highest_peer_rank              0x20003480   Data           4  peer_manager.o(.data)
    .data                                    0x20003484   Section        4  security_dispatcher.o(.data)
    m_flag_sec_proc                          0x20003484   Data           1  security_dispatcher.o(.data)
    m_flag_sec_proc_pairing                  0x20003485   Data           1  security_dispatcher.o(.data)
    m_flag_sec_proc_new_peer                 0x20003486   Data           1  security_dispatcher.o(.data)
    m_module_initialized                     0x20003487   Data           1  security_dispatcher.o(.data)
    .data                                    0x20003488   Section       21  security_manager.o(.data)
    m_flag_link_secure_pending_busy          0x20003488   Data           1  security_manager.o(.data)
    m_flag_link_secure_pending_flash_full    0x20003489   Data           1  security_manager.o(.data)
    m_flag_link_secure_force_repairing       0x2000348a   Data           1  security_manager.o(.data)
    m_flag_link_secure_null_params           0x2000348b   Data           1  security_manager.o(.data)
    m_flag_params_reply_pending_busy         0x2000348c   Data           1  security_manager.o(.data)
    m_flag_params_reply_pending_flash_full   0x2000348d   Data           1  security_manager.o(.data)
    m_flag_reject_pairing                    0x2000348e   Data           1  security_manager.o(.data)
    m_module_initialized                     0x2000348f   Data           1  security_manager.o(.data)
    m_sec_params_valid                       0x20003490   Data           1  security_manager.o(.data)
    m_p_public_key                           0x20003494   Data           4  security_manager.o(.data)
    m_sec_params                             0x20003498   Data           5  security_manager.o(.data)
    .data                                    0x2000349e   Section       74  ble_dis.o(.data)
    service_handle                           0x2000349e   Data           2  ble_dis.o(.data)
    manufact_name_handles                    0x200034a0   Data           8  ble_dis.o(.data)
    model_num_handles                        0x200034a8   Data           8  ble_dis.o(.data)
    serial_num_handles                       0x200034b0   Data           8  ble_dis.o(.data)
    hw_rev_handles                           0x200034b8   Data           8  ble_dis.o(.data)
    fw_rev_handles                           0x200034c0   Data           8  ble_dis.o(.data)
    sw_rev_handles                           0x200034c8   Data           8  ble_dis.o(.data)
    sys_id_handles                           0x200034d0   Data           8  ble_dis.o(.data)
    reg_cert_data_list_handles               0x200034d8   Data           8  ble_dis.o(.data)
    pnp_id_handles                           0x200034e0   Data           8  ble_dis.o(.data)
    .data                                    0x200034e8   Section       32  app_timer.o(.data)
    m_ticks_elapsed_q_read_ind               0x200034e8   Data           1  app_timer.o(.data)
    m_ticks_elapsed_q_write_ind              0x200034e9   Data           1  app_timer.o(.data)
    m_rtc1_running                           0x200034ea   Data           1  app_timer.o(.data)
    m_rtc1_reset                             0x200034eb   Data           1  app_timer.o(.data)
    mp_timer_id_head                         0x200034ec   Data           4  app_timer.o(.data)
    m_ticks_latest                           0x200034f0   Data           4  app_timer.o(.data)
    m_evt_schedule_func                      0x200034f4   Data           4  app_timer.o(.data)
    m_op_queue                               0x200034f8   Data           8  app_timer.o(.data)
    m_ticks_elapsed                          0x20003500   Data           8  app_timer.o(.data)
    .data                                    0x20003508   Section       12  app_util_platform.o(.data)
    m_in_critical_region                     0x20003508   Data           4  app_util_platform.o(.data)
    .data                                    0x20003514   Section       24  fds.o(.data)
    m_flags                                  0x20003514   Data           1  fds.o(.data)
    m_users                                  0x20003515   Data           1  fds.o(.data)
    page                                     0x20003516   Data           2  fds.o(.data)
    m_latest_rec_id                          0x20003518   Data           4  fds.o(.data)
    tok                                      0x2000351c   Data           8  fds.o(.data)
    m_swap_page                              0x20003524   Data           8  fds.o(.data)
    .data                                    0x2000352c   Section        2  fstorage.o(.data)
    m_flags                                  0x2000352c   Data           1  fstorage.o(.data)
    m_retry_count                            0x2000352d   Data           1  fstorage.o(.data)
    .data                                    0x20003530   Section       20  softdevice_handler.o(.data)
    m_softdevice_enabled                     0x20003530   Data           1  softdevice_handler.o(.data)
    m_suspended                              0x20003531   Data           1  softdevice_handler.o(.data)
    m_ble_evt_buffer_size                    0x20003532   Data           2  softdevice_handler.o(.data)
    m_evt_schedule_func                      0x20003534   Data           4  softdevice_handler.o(.data)
    mp_ble_evt_buffer                        0x20003538   Data           4  softdevice_handler.o(.data)
    m_ble_evt_handler                        0x2000353c   Data           4  softdevice_handler.o(.data)
    m_sys_evt_handler                        0x20003540   Data           4  softdevice_handler.o(.data)
    .data                                    0x20003544   Section        4  system_nrf51.o(.data)
    __tagsym$$used                           0x20003544   Number         0  system_nrf51.o(.data)
    fs_data                                  0x20003548   Section       16  fds.o(fs_data)
    __tagsym$$used                           0x20003548   Number         0  fds.o(fs_data)
    fs_config                                0x20003548   Data          16  fds.o(fs_data)
    .bss                                     0x20003558   Section       32  main.o(.bss)
    m_battery_timer_id_data                  0x20003558   Data          32  main.o(.bss)
    .bss                                     0x20003578   Section       32  main.o(.bss)
    m_heart_rate_timer_id_data               0x20003578   Data          32  main.o(.bss)
    .bss                                     0x20003598   Section       32  main.o(.bss)
    m_rr_interval_timer_id_data              0x20003598   Data          32  main.o(.bss)
    .bss                                     0x200035b8   Section       32  main.o(.bss)
    m_sensor_contact_timer_id_data           0x200035b8   Data          32  main.o(.bss)
    .bss                                     0x200035d8   Section      496  main.o(.bss)
    APP_TIMER_BUF                            0x200035d8   Data         120  main.o(.bss)
    BLE_EVT_BUFFER                           0x20003650   Data         208  main.o(.bss)
    m_bas                                    0x20003720   Data          24  main.o(.bss)
    m_hrs                                    0x20003738   Data          80  main.o(.bss)
    m_gatt                                   0x20003788   Data          16  main.o(.bss)
    m_battery_sim_cfg                        0x20003798   Data          16  main.o(.bss)
    m_heart_rate_sim_cfg                     0x200037a8   Data          16  main.o(.bss)
    m_rr_interval_sim_cfg                    0x200037b8   Data          16  main.o(.bss)
    .bss                                     0x200037c8   Section       32  bsp.o(.bss)
    m_leds_timer_id_data                     0x200037c8   Data          32  bsp.o(.bss)
    .bss                                     0x200037e8   Section       32  bsp.o(.bss)
    m_alert_timer_id_data                    0x200037e8   Data          32  bsp.o(.bss)
    .bss                                     0x20003808   Section       12  bsp.o(.bss)
    m_events_list                            0x20003808   Data          12  bsp.o(.bss)
    .bss                                     0x20003814   Section       32  bsp.o(.bss)
    m_button_timer_id_data                   0x20003814   Data          32  bsp.o(.bss)
    .bss                                     0x20003834   Section      363  ble_advertising.o(.bss)
    m_adv_modes_config                       0x20003834   Data          32  ble_advertising.o(.bss)
    m_advdata                                0x20003854   Data          60  ble_advertising.o(.bss)
    m_manuf_specific_data                    0x20003890   Data          12  ble_advertising.o(.bss)
    m_manuf_data_array                       0x2000389c   Data          31  ble_advertising.o(.bss)
    m_service_data                           0x200038bc   Data          12  ble_advertising.o(.bss)
    m_service_data_array                     0x200038c8   Data          31  ble_advertising.o(.bss)
    m_whitelist_addrs                        0x200038e7   Data          56  ble_advertising.o(.bss)
    m_whitelist_irks                         0x2000391f   Data         128  ble_advertising.o(.bss)
    .bss                                     0x200039a0   Section       32  ble_advertising.o(.bss)
    m_p_whitelist_addrs                      0x200039a0   Data          32  ble_advertising.o(.bss)
    .bss                                     0x200039c0   Section       32  ble_advertising.o(.bss)
    m_p_whitelist_irks                       0x200039c0   Data          32  ble_advertising.o(.bss)
    .bss                                     0x200039e0   Section       32  ble_conn_params.o(.bss)
    m_conn_params_timer_id_data              0x200039e0   Data          32  ble_conn_params.o(.bss)
    .bss                                     0x20003a00   Section       28  ble_conn_params.o(.bss)
    m_conn_params_config                     0x20003a00   Data          28  ble_conn_params.o(.bss)
    .bss                                     0x20003a1c   Section       52  ble_conn_state.o(.bss)
    m_bcs                                    0x20003a1c   Data          52  ble_conn_state.o(.bss)
    .bss                                     0x20003a50   Section      112  id_manager.o(.bss)
    m_connections                            0x20003a50   Data          96  id_manager.o(.bss)
    m_wlisted_peers                          0x20003ab0   Data          16  id_manager.o(.bss)
    .bss                                     0x20003ac0   Section      816  peer_database.o(.bss)
    buffer_memory                            0x20003ac0   Data         640  peer_database.o(.bss)
    m_write_buffer                           0x20003d40   Data          16  peer_database.o(.bss)
    m_write_buffer_records                   0x20003d50   Data         160  peer_database.o(.bss)
    .bss                                     0x20003df0   Section       64  peer_id.o(.bss)
    m_pi                                     0x20003df0   Data          64  peer_id.o(.bss)
    .bss                                     0x20003e30   Section       12  peer_manager.o(.bss)
    m_evt_handlers                           0x20003e30   Data          12  peer_manager.o(.bss)
    .bss                                     0x20003e3c   Section       64  security_dispatcher.o(.bss)
    m_peer_pk                                0x20003e3c   Data          64  security_dispatcher.o(.bss)
    .bss                                     0x20003e7c   Section       20  nrf_drv_clock.o(.bss)
    m_clock_cb                               0x20003e7c   Data          20  nrf_drv_clock.o(.bss)
    .bss                                     0x20003e90   Section       72  nrf_drv_gpiote.o(.bss)
    m_cb                                     0x20003e90   Data          72  nrf_drv_gpiote.o(.bss)
    .bss                                     0x20003ed8   Section       28  nrf_drv_uart.o(.bss)
    m_cb                                     0x20003ed8   Data          28  nrf_drv_uart.o(.bss)
    .bss                                     0x20003ef4   Section      284  fds.o(.bss)
    desc                                     0x20003ef4   Data          12  fds.o(.bss)
    m_cb_table                               0x20003f00   Data          32  fds.o(.bss)
    m_op_queue                               0x20003f20   Data         120  fds.o(.bss)
    m_chunk_queue                            0x20003f98   Data          72  fds.o(.bss)
    m_pages                                  0x20003fe0   Data          32  fds.o(.bss)
    m_gc                                     0x20004000   Data          16  fds.o(.bss)
    .bss                                     0x20004010   Section      104  fstorage.o(.bss)
    m_queue                                  0x20004010   Data         104  fstorage.o(.bss)
    STACK                                    0x20004078   Section     2048  arm_startup_nrf51.o(STACK)

    Global Symbols

    Symbol Name                              Value     Ov Type        Size  Object(Section)

    BuildAttributes$$THM_ISAv3M$S$PE$A:L22$X:L11$S22$IEEE1$IW$USESV6$~STKCKD$USESV7$~SHL$OSPACE$EBA8$MICROLIB$REQ8$PRES8$EABIv2 0x00000000   Number         0  anon$$obj.o ABSOLUTE
    __ARM_use_no_argv                        0x00000000   Number         0  main.o ABSOLUTE
    __cpp_initialize__aeabi_                  - Undefined Weak Reference
    __cxa_finalize                            - Undefined Weak Reference
    _clock_init                               - Undefined Weak Reference
    _microlib_exit                            - Undefined Weak Reference
    __Vectors_Size                           0x000000c0   Number         0  arm_startup_nrf51.o ABSOLUTE
    __Vectors                                0x0001b000   Data           4  arm_startup_nrf51.o(RESET)
    __Vectors_End                            0x0001b0c0   Data           0  arm_startup_nrf51.o(RESET)
    __main                                   0x0001b0c1   Thumb Code     0  entry.o(.ARM.Collect$$$$00000000)
    _main_stk                                0x0001b0c1   Thumb Code     0  entry2.o(.ARM.Collect$$$$00000001)
    _main_scatterload                        0x0001b0c5   Thumb Code     0  entry5.o(.ARM.Collect$$$$00000004)
    __main_after_scatterload                 0x0001b0c9   Thumb Code     0  entry5.o(.ARM.Collect$$$$00000004)
    _main_clock                              0x0001b0c9   Thumb Code     0  entry7b.o(.ARM.Collect$$$$00000008)
    _main_cpp_init                           0x0001b0c9   Thumb Code     0  entry8b.o(.ARM.Collect$$$$0000000A)
    _main_init                               0x0001b0c9   Thumb Code     0  entry9a.o(.ARM.Collect$$$$0000000B)
    __rt_final_cpp                           0x0001b0d1   Thumb Code     0  entry10a.o(.ARM.Collect$$$$0000000D)
    __rt_final_exit                          0x0001b0d1   Thumb Code     0  entry11a.o(.ARM.Collect$$$$0000000F)
    Reset_Handler                            0x0001b0d5   Thumb Code    26  arm_startup_nrf51.o(.text)
    NMI_Handler                              0x0001b0ef   Thumb Code     2  arm_startup_nrf51.o(.text)
    HardFault_Handler                        0x0001b0f1   Thumb Code     2  arm_startup_nrf51.o(.text)
    SVC_Handler                              0x0001b0f3   Thumb Code     2  arm_startup_nrf51.o(.text)
    PendSV_Handler                           0x0001b0f5   Thumb Code     2  arm_startup_nrf51.o(.text)
    SysTick_Handler                          0x0001b0f7   Thumb Code     2  arm_startup_nrf51.o(.text)
    ADC_IRQHandler                           0x0001b0f9   Thumb Code     0  arm_startup_nrf51.o(.text)
    CCM_AAR_IRQHandler                       0x0001b0f9   Thumb Code     0  arm_startup_nrf51.o(.text)
    ECB_IRQHandler                           0x0001b0f9   Thumb Code     0  arm_startup_nrf51.o(.text)
    LPCOMP_IRQHandler                        0x0001b0f9   Thumb Code     0  arm_startup_nrf51.o(.text)
    QDEC_IRQHandler                          0x0001b0f9   Thumb Code     0  arm_startup_nrf51.o(.text)
    RADIO_IRQHandler                         0x0001b0f9   Thumb Code     0  arm_startup_nrf51.o(.text)
    RNG_IRQHandler                           0x0001b0f9   Thumb Code     0  arm_startup_nrf51.o(.text)
    RTC0_IRQHandler                          0x0001b0f9   Thumb Code     0  arm_startup_nrf51.o(.text)
    SPI0_TWI0_IRQHandler                     0x0001b0f9   Thumb Code     0  arm_startup_nrf51.o(.text)
    SPI1_TWI1_IRQHandler                     0x0001b0f9   Thumb Code     0  arm_startup_nrf51.o(.text)
    SWI1_IRQHandler                          0x0001b0f9   Thumb Code     0  arm_startup_nrf51.o(.text)
    SWI3_IRQHandler                          0x0001b0f9   Thumb Code     0  arm_startup_nrf51.o(.text)
    SWI4_IRQHandler                          0x0001b0f9   Thumb Code     0  arm_startup_nrf51.o(.text)
    SWI5_IRQHandler                          0x0001b0f9   Thumb Code     0  arm_startup_nrf51.o(.text)
    TEMP_IRQHandler                          0x0001b0f9   Thumb Code     0  arm_startup_nrf51.o(.text)
    TIMER0_IRQHandler                        0x0001b0f9   Thumb Code     0  arm_startup_nrf51.o(.text)
    TIMER1_IRQHandler                        0x0001b0f9   Thumb Code     0  arm_startup_nrf51.o(.text)
    TIMER2_IRQHandler                        0x0001b0f9   Thumb Code     0  arm_startup_nrf51.o(.text)
    WDT_IRQHandler                           0x0001b0f9   Thumb Code     0  arm_startup_nrf51.o(.text)
    __aeabi_uidiv                            0x0001b10d   Thumb Code     0  uidiv.o(.text)
    __aeabi_uidivmod                         0x0001b10d   Thumb Code    44  uidiv.o(.text)
    ___aeabi_memcpy8$move                    0x0001b139   Thumb Code     0  memmovea.o(.text)
    __aeabi_memcpy                           0x0001b139   Thumb Code    64  memmovea.o(.text)
    __aeabi_memcpy4                          0x0001b139   Thumb Code     0  memmovea.o(.text)
    __aeabi_memmove                          0x0001b139   Thumb Code     0  memmovea.o(.text)
    __aeabi_memmove4                         0x0001b139   Thumb Code     0  memmovea.o(.text)
    __aeabi_memmove8                         0x0001b139   Thumb Code     0  memmovea.o(.text)
    __aeabi_memset                           0x0001b179   Thumb Code    14  memseta.o(.text)
    __aeabi_memset4                          0x0001b179   Thumb Code     0  memseta.o(.text)
    __aeabi_memset8                          0x0001b179   Thumb Code     0  memseta.o(.text)
    __aeabi_memclr                           0x0001b187   Thumb Code     4  memseta.o(.text)
    __aeabi_memclr4                          0x0001b187   Thumb Code     0  memseta.o(.text)
    __aeabi_memclr8                          0x0001b187   Thumb Code     0  memseta.o(.text)
    _memset$wrapper                          0x0001b18b   Thumb Code    18  memseta.o(.text)
    strlen                                   0x0001b19d   Thumb Code    14  strlen.o(.text)
    memcmp                                   0x0001b1ab   Thumb Code    26  memcmp.o(.text)
    __scatterload                            0x0001b1c5   Thumb Code    28  init.o(.text)
    __scatterload_rt2                        0x0001b1c5   Thumb Code     0  init.o(.text)
    __decompress                             0x0001b1e9   Thumb Code     0  __dczerorl2.o(.text)
    __decompress1                            0x0001b1e9   Thumb Code    86  __dczerorl2.o(.text)
    GPIOTE_IRQHandler                        0x0001b241   Thumb Code   364  nrf_drv_gpiote.o(i.GPIOTE_IRQHandler)
    POWER_CLOCK_IRQHandler                   0x0001b3fd   Thumb Code    70  nrf_drv_clock.o(i.POWER_CLOCK_IRQHandler)
    RTC1_IRQHandler                          0x0001b451   Thumb Code    28  app_timer.o(i.RTC1_IRQHandler)
    SWI0_IRQHandler                          0x0001b471   Thumb Code     8  app_timer.o(i.SWI0_IRQHandler)
    SWI2_IRQHandler                          0x0001b479   Thumb Code    28  softdevice_handler.o(i.SWI2_IRQHandler)
    SystemInit                               0x0001b499   Thumb Code   130  system_nrf51.o(i.SystemInit)
    UART0_IRQHandler                         0x0001b539   Thumb Code    12  nrf_drv_uart.o(i.UART0_IRQHandler)
    __ARM_common_switch8                     0x0001b54d   Thumb Code    26  main.o(i.__ARM_common_switch8)
    __scatterload_copy                       0x0001b567   Thumb Code    14  handlers.o(i.__scatterload_copy)
    __scatterload_null                       0x0001b575   Thumb Code     2  handlers.o(i.__scatterload_null)
    __scatterload_zeroinit                   0x0001b577   Thumb Code    14  handlers.o(i.__scatterload_zeroinit)
    addr_compare                             0x0001b5a1   Thumb Code    40  id_manager.o(i.addr_compare)
    adv_data_encode                          0x0001b5c9   Thumb Code   398  ble_advdata.o(i.adv_data_encode)
    advertising_start                        0x0001b7fd   Thumb Code    18  main.o(i.advertising_start)
    ah                                       0x0001b80f   Thumb Code    78  id_manager.o(i.ah)
    app_error_fault_handler                  0x0001b85d   Thumb Code    18  app_error_weak.o(i.app_error_fault_handler)
    app_error_handler_bare                   0x0001b879   Thumb Code    20  app_error.o(i.app_error_handler_bare)
    app_timer_create                         0x0001b891   Thumb Code    40  app_timer.o(i.app_timer_create)
    app_timer_init                           0x0001b8bd   Thumb Code    98  app_timer.o(i.app_timer_init)
    app_timer_start                          0x0001b931   Thumb Code   128  app_timer.o(i.app_timer_start)
    app_timer_stop                           0x0001b9b9   Thumb Code    36  app_timer.o(i.app_timer_stop)
    app_util_critical_region_enter           0x0001b9e1   Thumb Code    48  app_util_platform.o(i.app_util_critical_region_enter)
    app_util_critical_region_exit            0x0001ba1d   Thumb Code    36  app_util_platform.o(i.app_util_critical_region_exit)
    ble_advdata_set                          0x0001bcbd   Thumb Code   104  ble_advdata.o(i.ble_advdata_set)
    ble_advertising_init                     0x0001bd25   Thumb Code   340  ble_advertising.o(i.ble_advertising_init)
    ble_advertising_on_ble_evt               0x0001be81   Thumb Code    82  ble_advertising.o(i.ble_advertising_on_ble_evt)
    ble_advertising_on_sys_evt               0x0001bed9   Thumb Code    42  ble_advertising.o(i.ble_advertising_on_sys_evt)
    ble_advertising_start                    0x0001bf09   Thumb Code   256  ble_advertising.o(i.ble_advertising_start)
    ble_bas_battery_level_update             0x0001c011   Thumb Code   112  ble_bas.o(i.ble_bas_battery_level_update)
    ble_bas_init                             0x0001c085   Thumb Code    66  ble_bas.o(i.ble_bas_init)
    ble_bas_on_ble_evt                       0x0001c0cd   Thumb Code    96  ble_bas.o(i.ble_bas_on_ble_evt)
    ble_conn_params_init                     0x0001c12d   Thumb Code    68  ble_conn_params.o(i.ble_conn_params_init)
    ble_conn_params_on_ble_evt               0x0001c181   Thumb Code   130  ble_conn_params.o(i.ble_conn_params_on_ble_evt)
    ble_conn_state_conn_handles              0x0001c211   Thumb Code    14  ble_conn_state.o(i.ble_conn_state_conn_handles)
    ble_conn_state_encrypted                 0x0001c225   Thumb Code    16  ble_conn_state.o(i.ble_conn_state_encrypted)
    ble_conn_state_mitm_protected            0x0001c239   Thumb Code    16  ble_conn_state.o(i.ble_conn_state_mitm_protected)
    ble_conn_state_on_ble_evt                0x0001c24d   Thumb Code   238  ble_conn_state.o(i.ble_conn_state_on_ble_evt)
    ble_conn_state_role                      0x0001c345   Thumb Code    46  ble_conn_state.o(i.ble_conn_state_role)
    ble_conn_state_user_flag_acquire         0x0001c379   Thumb Code    42  ble_conn_state.o(i.ble_conn_state_user_flag_acquire)
    ble_conn_state_user_flag_collection      0x0001c3a9   Thumb Code    20  ble_conn_state.o(i.ble_conn_state_user_flag_collection)
    ble_conn_state_user_flag_get             0x0001c3c1   Thumb Code    32  ble_conn_state.o(i.ble_conn_state_user_flag_get)
    ble_conn_state_user_flag_set             0x0001c3e5   Thumb Code    36  ble_conn_state.o(i.ble_conn_state_user_flag_set)
    ble_dis_init                             0x0001c46d   Thumb Code   308  ble_dis.o(i.ble_dis_init)
    ble_hrs_heart_rate_measurement_send      0x0001c5f5   Thumb Code    82  ble_hrs.o(i.ble_hrs_heart_rate_measurement_send)
    ble_hrs_init                             0x0001c64d   Thumb Code    92  ble_hrs.o(i.ble_hrs_init)
    ble_hrs_on_ble_evt                       0x0001c6ad   Thumb Code    82  ble_hrs.o(i.ble_hrs_on_ble_evt)
    ble_hrs_on_gatt_evt                      0x0001c6ff   Thumb Code    18  ble_hrs.o(i.ble_hrs_on_gatt_evt)
    ble_hrs_rr_interval_add                  0x0001c711   Thumb Code    46  ble_hrs.o(i.ble_hrs_rr_interval_add)
    ble_hrs_sensor_contact_detected_update   0x0001c73f   Thumb Code     6  ble_hrs.o(i.ble_hrs_sensor_contact_detected_update)
    ble_srv_ascii_to_utf8                    0x0001c745   Thumb Code    18  ble_srv_common.o(i.ble_srv_ascii_to_utf8)
    ble_srv_is_notification_enabled          0x0001c757   Thumb Code    14  ble_srv_common.o(i.ble_srv_is_notification_enabled)
    ble_srv_report_ref_encode                0x0001c765   Thumb Code    12  ble_srv_common.o(i.ble_srv_report_ref_encode)
    bsp_board_button_idx_to_pin              0x0001c869   Thumb Code     6  boards.o(i.bsp_board_button_idx_to_pin)
    bsp_board_led_invert                     0x0001c875   Thumb Code    24  boards.o(i.bsp_board_led_invert)
    bsp_board_led_off                        0x0001c895   Thumb Code    14  boards.o(i.bsp_board_led_off)
    bsp_board_led_on                         0x0001c8a9   Thumb Code    14  boards.o(i.bsp_board_led_on)
    bsp_board_led_state_get                  0x0001c8bd   Thumb Code    24  boards.o(i.bsp_board_led_state_get)
    bsp_board_leds_off                       0x0001c8dd   Thumb Code    18  boards.o(i.bsp_board_leds_off)
    bsp_board_leds_on                        0x0001c8ef   Thumb Code    18  boards.o(i.bsp_board_leds_on)
    bsp_board_pin_to_button_idx              0x0001c901   Thumb Code    30  boards.o(i.bsp_board_pin_to_button_idx)
    bsp_btn_ble_on_ble_evt                   0x0001c925   Thumb Code   114  bsp_btn_ble.o(i.bsp_btn_ble_on_ble_evt)
    bsp_btn_ble_sleep_mode_prepare           0x0001c99d   Thumb Code    34  bsp_btn_ble.o(i.bsp_btn_ble_sleep_mode_prepare)
    bsp_event_to_button_action_assign        0x0001ca55   Thumb Code    66  bsp.o(i.bsp_event_to_button_action_assign)
    bsp_indication_set                       0x0001ca9d   Thumb Code    22  bsp.o(i.bsp_indication_set)
    bsp_wakeup_button_enable                 0x0001cc39   Thumb Code    16  bsp.o(i.bsp_wakeup_button_enable)
    chunk_queue_next                         0x0001cd75   Thumb Code    20  fds.o(i.chunk_queue_next)
    fds_file_delete                          0x0001d2e5   Thumb Code    66  fds.o(i.fds_file_delete)
    fds_gc                                   0x0001d331   Thumb Code    62  fds.o(i.fds_gc)
    fds_init                                 0x0001d379   Thumb Code   130  fds.o(i.fds_init)
    fds_record_close                         0x0001d401   Thumb Code    60  fds.o(i.fds_record_close)
    fds_record_find                          0x0001d441   Thumb Code    14  fds.o(i.fds_record_find)
    fds_record_find_by_key                   0x0001d44f   Thumb Code    16  fds.o(i.fds_record_find_by_key)
    fds_record_find_in_file                  0x0001d45f   Thumb Code    16  fds.o(i.fds_record_find_in_file)
    fds_record_id_from_desc                  0x0001d46f   Thumb Code    20  fds.o(i.fds_record_id_from_desc)
    fds_record_open                          0x0001d485   Thumb Code    64  fds.o(i.fds_record_open)
    fds_record_update                        0x0001d4c9   Thumb Code    20  fds.o(i.fds_record_update)
    fds_record_write                         0x0001d4dd   Thumb Code    12  fds.o(i.fds_record_write)
    fds_record_write_reserved                0x0001d4e9   Thumb Code    18  fds.o(i.fds_record_write_reserved)
    fds_register                             0x0001d4fd   Thumb Code    28  fds.o(i.fds_register)
    fds_reserve                              0x0001d521   Thumb Code    48  fds.o(i.fds_reserve)
    fds_reserve_cancel                       0x0001d555   Thumb Code    62  fds.o(i.fds_reserve_cancel)
    fs_erase                                 0x0001d661   Thumb Code   118  fstorage.o(i.fs_erase)
    fs_init                                  0x0001d6e9   Thumb Code   154  fstorage.o(i.fs_init)
    fs_queued_op_count_get                   0x0001d795   Thumb Code    18  fstorage.o(i.fs_queued_op_count_get)
    fs_store                                 0x0001d7ad   Thumb Code   128  fstorage.o(i.fs_store)
    fs_sys_event_handler                     0x0001d831   Thumb Code    94  fstorage.o(i.fs_sys_event_handler)
    gatt_evt_handler                         0x0001d8f9   Thumb Code    10  main.o(i.gatt_evt_handler)
    gatt_init                                0x0001d909   Thumb Code    20  main.o(i.gatt_init)
    gcm_ble_evt_handler                      0x0001daf9   Thumb Code   232  gatt_cache_manager.o(i.gcm_ble_evt_handler)
    gcm_gscm_evt_handler                     0x0001dbe9   Thumb Code    96  gatt_cache_manager.o(i.gcm_gscm_evt_handler)
    gcm_im_evt_handler                       0x0001dc51   Thumb Code    40  gatt_cache_manager.o(i.gcm_im_evt_handler)
    gcm_init                                 0x0001dc7d   Thumb Code    66  gatt_cache_manager.o(i.gcm_init)
    gcm_local_database_has_changed           0x0001dcc5   Thumb Code    66  gatt_cache_manager.o(i.gcm_local_database_has_changed)
    gcm_smd_evt_handler                      0x0001dd11   Thumb Code    16  gatt_cache_manager.o(i.gcm_smd_evt_handler)
    get_connection_by_conn_handle            0x0001dd21   Thumb Code    48  id_manager.o(i.get_connection_by_conn_handle)
    get_free_connection                      0x0001dd59   Thumb Code    40  id_manager.o(i.get_free_connection)
    gscm_db_change_notification_done         0x0001dd89   Thumb Code    22  gatts_cache_manager.o(i.gscm_db_change_notification_done)
    gscm_init                                0x0001dda5   Thumb Code    16  gatts_cache_manager.o(i.gscm_init)
    gscm_local_database_has_changed          0x0001ddb9   Thumb Code    18  gatts_cache_manager.o(i.gscm_local_database_has_changed)
    gscm_local_db_cache_apply                0x0001ddd5   Thumb Code   104  gatts_cache_manager.o(i.gscm_local_db_cache_apply)
    gscm_local_db_cache_update               0x0001de41   Thumb Code   124  gatts_cache_manager.o(i.gscm_local_db_cache_update)
    gscm_pdb_evt_handler                     0x0001dec5   Thumb Code    72  gatts_cache_manager.o(i.gscm_pdb_evt_handler)
    gscm_service_changed_ind_needed          0x0001df15   Thumb Code    28  gatts_cache_manager.o(i.gscm_service_changed_ind_needed)
    gscm_service_changed_ind_send            0x0001df31   Thumb Code    32  gatts_cache_manager.o(i.gscm_service_changed_ind_send)
    im_address_resolve                       0x0001e10f   Thumb Code    64  id_manager.o(i.im_address_resolve)
    im_ble_addr_get                          0x0001e151   Thumb Code    38  id_manager.o(i.im_ble_addr_get)
    im_ble_evt_handler                       0x0001e17d   Thumb Code   162  id_manager.o(i.im_ble_evt_handler)
    im_conn_handle_get                       0x0001e225   Thumb Code    34  id_manager.o(i.im_conn_handle_get)
    im_init                                  0x0001e251   Thumb Code    60  id_manager.o(i.im_init)
    im_is_duplicate_bonding_data             0x0001e299   Thumb Code    56  id_manager.o(i.im_is_duplicate_bonding_data)
    im_master_id_is_valid                    0x0001e2d1   Thumb Code    28  id_manager.o(i.im_master_id_is_valid)
    im_master_ids_compare                    0x0001e2ed   Thumb Code    44  id_manager.o(i.im_master_ids_compare)
    im_new_peer_id                           0x0001e319   Thumb Code     8  id_manager.o(i.im_new_peer_id)
    im_pdb_evt_handler                       0x0001e321   Thumb Code   110  id_manager.o(i.im_pdb_evt_handler)
    im_peer_free                             0x0001e391   Thumb Code    38  id_manager.o(i.im_peer_free)
    im_peer_id_get_by_conn_handle            0x0001e3bd   Thumb Code    24  id_manager.o(i.im_peer_id_get_by_conn_handle)
    im_peer_id_get_by_master_id              0x0001e3dd   Thumb Code    62  id_manager.o(i.im_peer_id_get_by_master_id)
    in_pin_handler                           0x0001e421   Thumb Code    48  main.o(i.in_pin_handler)
    intern_softdevice_events_execute         0x0001e521   Thumb Code   122  softdevice_handler.o(i.intern_softdevice_events_execute)
    is_valid_irk                             0x0001e605   Thumb Code    22  id_manager.o(i.is_valid_irk)
    main                                     0x0001ebc1   Thumb Code   254  main.o(i.main)
    new_connection                           0x0001ede9   Thumb Code    80  id_manager.o(i.new_connection)
    next_id_get                              0x0001ee45   Thumb Code    48  peer_id.o(i.next_id_get)
    nrf_ble_gatt_init                        0x0001ee89   Thumb Code     4  nrf_ble_gatt.o(i.nrf_ble_gatt_init)
    nrf_ble_gatt_on_ble_evt                  0x0001ee8d   Thumb Code     2  nrf_ble_gatt.o(i.nrf_ble_gatt_on_ble_evt)
    nrf_drv_clock_init                       0x0001eed1   Thumb Code    60  nrf_drv_clock.o(i.nrf_drv_clock_init)
    nrf_drv_clock_on_sd_enable               0x0001ef19   Thumb Code    46  nrf_drv_clock.o(i.nrf_drv_clock_on_sd_enable)
    nrf_drv_clock_on_soc_event               0x0001ef4d   Thumb Code    12  nrf_drv_clock.o(i.nrf_drv_clock_on_soc_event)
    nrf_drv_common_irq_enable                0x0001ef59   Thumb Code    78  nrf_drv_common.o(i.nrf_drv_common_irq_enable)
    nrf_drv_gpiote_in_event_enable           0x0001efb9   Thumb Code   136  nrf_drv_gpiote.o(i.nrf_drv_gpiote_in_event_enable)
    nrf_drv_gpiote_in_init                   0x0001f051   Thumb Code   154  nrf_drv_gpiote.o(i.nrf_drv_gpiote_in_init)
    nrf_drv_gpiote_init                      0x0001f0f9   Thumb Code    84  nrf_drv_gpiote.o(i.nrf_drv_gpiote_init)
    nrf_drv_gpiote_is_init                   0x0001f155   Thumb Code    12  nrf_drv_gpiote.o(i.nrf_drv_gpiote_is_init)
    pdb_init                                 0x0001f671   Thumb Code    62  peer_database.o(i.pdb_init)
    pdb_next_deleted_peer_id_get             0x0001f6bd   Thumb Code     8  peer_database.o(i.pdb_next_deleted_peer_id_get)
    pdb_next_peer_id_get                     0x0001f6c5   Thumb Code     8  peer_database.o(i.pdb_next_peer_id_get)
    pdb_pds_evt_handler                      0x0001f6cd   Thumb Code   300  peer_database.o(i.pdb_pds_evt_handler)
    pdb_peer_allocate                        0x0001f801   Thumb Code     8  peer_database.o(i.pdb_peer_allocate)
    pdb_peer_data_ptr_get                    0x0001f809   Thumb Code    10  peer_database.o(i.pdb_peer_data_ptr_get)
    pdb_peer_free                            0x0001f813   Thumb Code    74  peer_database.o(i.pdb_peer_free)
    pdb_raw_store                            0x0001f85d   Thumb Code    12  peer_database.o(i.pdb_raw_store)
    pdb_write_buf_get                        0x0001f869   Thumb Code   256  peer_database.o(i.pdb_write_buf_get)
    pdb_write_buf_release                    0x0001f971   Thumb Code    42  peer_database.o(i.pdb_write_buf_release)
    pdb_write_buf_store                      0x0001f99d   Thumb Code   190  peer_database.o(i.pdb_write_buf_store)
    pdb_write_buf_store_prepare              0x0001fa65   Thumb Code    98  peer_database.o(i.pdb_write_buf_store_prepare)
    pds_init                                 0x0001fad9   Thumb Code   100  peer_data_storage.o(i.pds_init)
    pds_next_deleted_peer_id_get             0x0001fb49   Thumb Code     8  peer_data_storage.o(i.pds_next_deleted_peer_id_get)
    pds_next_peer_id_get                     0x0001fb51   Thumb Code     8  peer_data_storage.o(i.pds_next_peer_id_get)
    pds_peer_data_iterate                    0x0001fb59   Thumb Code    80  peer_data_storage.o(i.pds_peer_data_iterate)
    pds_peer_data_iterate_prepare            0x0001fbad   Thumb Code    10  peer_data_storage.o(i.pds_peer_data_iterate_prepare)
    pds_peer_data_read                       0x0001fbbd   Thumb Code   112  peer_data_storage.o(i.pds_peer_data_read)
    pds_peer_data_store                      0x0001fc2d   Thumb Code   174  peer_data_storage.o(i.pds_peer_data_store)
    pds_peer_id_allocate                     0x0001fcdd   Thumb Code    10  peer_data_storage.o(i.pds_peer_id_allocate)
    pds_peer_id_free                         0x0001fced   Thumb Code    22  peer_data_storage.o(i.pds_peer_id_free)
    pds_peer_id_is_allocated                 0x0001fd03   Thumb Code     8  peer_data_storage.o(i.pds_peer_id_is_allocated)
    pds_space_reserve                        0x0001fd0b   Thumb Code    48  peer_data_storage.o(i.pds_space_reserve)
    pds_space_reserve_cancel                 0x0001fd3b   Thumb Code    16  peer_data_storage.o(i.pds_space_reserve_cancel)
    peer_id_allocate                         0x0001fe39   Thumb Code    10  peer_id.o(i.peer_id_allocate)
    peer_id_delete                           0x0001fe49   Thumb Code    30  peer_id.o(i.peer_id_delete)
    peer_id_free                             0x0001fe71   Thumb Code    22  peer_id.o(i.peer_id_free)
    peer_id_get_next_deleted                 0x0001fe8d   Thumb Code    10  peer_id.o(i.peer_id_get_next_deleted)
    peer_id_get_next_used                    0x0001fe9d   Thumb Code    42  peer_id.o(i.peer_id_get_next_used)
    peer_id_init                             0x0001fed1   Thumb Code    34  peer_id.o(i.peer_id_init)
    peer_id_is_allocated                     0x0001fef9   Thumb Code    20  peer_id.o(i.peer_id_is_allocated)
    peer_id_is_deleted                       0x0001ff11   Thumb Code    20  peer_id.o(i.peer_id_is_deleted)
    pm_buffer_block_acquire                  0x00020009   Thumb Code    94  pm_buffer.o(i.pm_buffer_block_acquire)
    pm_buffer_init                           0x00020067   Thumb Code    66  pm_buffer.o(i.pm_buffer_init)
    pm_buffer_ptr_get                        0x000200a9   Thumb Code    46  pm_buffer.o(i.pm_buffer_ptr_get)
    pm_buffer_release                        0x000200d7   Thumb Code    42  pm_buffer.o(i.pm_buffer_release)
    pm_conn_sec_config_reply                 0x00020101   Thumb Code     8  peer_manager.o(i.pm_conn_sec_config_reply)
    pm_gcm_evt_handler                       0x0002015d   Thumb Code   128  peer_manager.o(i.pm_gcm_evt_handler)
    pm_im_evt_handler                        0x000201dd   Thumb Code    74  peer_manager.o(i.pm_im_evt_handler)
    pm_init                                  0x0002022d   Thumb Code   108  peer_manager.o(i.pm_init)
    pm_local_database_has_changed            0x0002029d   Thumb Code    16  peer_manager.o(i.pm_local_database_has_changed)
    pm_mutex_init                            0x000202b1   Thumb Code    16  pm_mutex.o(i.pm_mutex_init)
    pm_mutex_lock                            0x000202c1   Thumb Code    28  pm_mutex.o(i.pm_mutex_lock)
    pm_mutex_lock_first_available            0x000202dd   Thumb Code    52  pm_mutex.o(i.pm_mutex_lock_first_available)
    pm_mutex_lock_status_get                 0x00020311   Thumb Code    24  pm_mutex.o(i.pm_mutex_lock_status_get)
    pm_mutex_unlock                          0x00020329   Thumb Code    54  pm_mutex.o(i.pm_mutex_unlock)
    pm_on_ble_evt                            0x00020361   Thumb Code    32  peer_manager.o(i.pm_on_ble_evt)
    pm_pdb_evt_handler                       0x00020385   Thumb Code   306  peer_manager.o(i.pm_pdb_evt_handler)
    pm_peer_delete                           0x000204c1   Thumb Code    20  peer_manager.o(i.pm_peer_delete)
    pm_peers_delete                          0x000204d9   Thumb Code    52  peer_manager.o(i.pm_peers_delete)
    pm_register                              0x00020515   Thumb Code    38  peer_manager.o(i.pm_register)
    pm_sec_params_set                        0x00020545   Thumb Code    20  peer_manager.o(i.pm_sec_params_set)
    pm_sm_evt_handler                        0x0002055d   Thumb Code   324  peer_manager.o(i.pm_sm_evt_handler)
    sdk_mapped_flags_bulk_update_by_key      0x00020c75   Thumb Code    70  sdk_mapped_flags.o(i.sdk_mapped_flags_bulk_update_by_key)
    sdk_mapped_flags_first_key_index_get     0x00020cbd   Thumb Code    34  sdk_mapped_flags.o(i.sdk_mapped_flags_first_key_index_get)
    sdk_mapped_flags_get_by_key              0x00020cf5   Thumb Code    38  sdk_mapped_flags.o(i.sdk_mapped_flags_get_by_key)
    sdk_mapped_flags_key_list_get            0x00020d1b   Thumb Code    70  sdk_mapped_flags.o(i.sdk_mapped_flags_key_list_get)
    sdk_mapped_flags_update_by_key           0x00020d61   Thumb Code    14  sdk_mapped_flags.o(i.sdk_mapped_flags_update_by_key)
    sensorsim_decrement                      0x00020fc5   Thumb Code    28  sensorsim.o(i.sensorsim_decrement)
    sensorsim_increment                      0x00020fe1   Thumb Code    28  sensorsim.o(i.sensorsim_increment)
    sensorsim_init                           0x00020ffd   Thumb Code    24  sensorsim.o(i.sensorsim_init)
    sensorsim_measure                        0x00021015   Thumb Code    26  sensorsim.o(i.sensorsim_measure)
    sm_ble_evt_handler                       0x000213b9   Thumb Code    16  security_manager.o(i.sm_ble_evt_handler)
    sm_conn_sec_config_reply                 0x000213cd   Thumb Code    24  security_manager.o(i.sm_conn_sec_config_reply)
    sm_init                                  0x000213e9   Thumb Code    76  security_manager.o(i.sm_init)
    sm_pdb_evt_handler                       0x00021439   Thumb Code    48  security_manager.o(i.sm_pdb_evt_handler)
    sm_sec_params_set                        0x0002146d   Thumb Code    44  security_manager.o(i.sm_sec_params_set)
    sm_smd_evt_handler                       0x0002149d   Thumb Code   118  security_manager.o(i.sm_smd_evt_handler)
    smd_ble_evt_handler                      0x00021519   Thumb Code   214  security_dispatcher.o(i.smd_ble_evt_handler)
    smd_init                                 0x000215fd   Thumb Code    56  security_dispatcher.o(i.smd_init)
    smd_link_secure                          0x00021639   Thumb Code    44  security_dispatcher.o(i.smd_link_secure)
    smd_params_reply                         0x00021669   Thumb Code   260  security_dispatcher.o(i.smd_params_reply)
    smd_pdb_evt_handler                      0x00021801   Thumb Code    46  security_dispatcher.o(i.smd_pdb_evt_handler)
    softdevice_ble_evt_handler_set           0x00021835   Thumb Code    16  softdevice_handler.o(i.softdevice_ble_evt_handler_set)
    softdevice_enable                        0x00021849   Thumb Code    14  softdevice_handler.o(i.softdevice_enable)
    softdevice_enable_get_default_config     0x0002185d   Thumb Code    40  softdevice_handler.o(i.softdevice_enable_get_default_config)
    softdevice_fault_handler                 0x00021885   Thumb Code     8  softdevice_handler.o(i.softdevice_fault_handler)
    softdevice_handler_init                  0x0002188d   Thumb Code    74  softdevice_handler.o(i.softdevice_handler_init)
    softdevice_handler_is_enabled            0x000218e5   Thumb Code     6  softdevice_handler.o(i.softdevice_handler_is_enabled)
    softdevice_sys_evt_handler_set           0x000218f1   Thumb Code    16  softdevice_handler.o(i.softdevice_sys_evt_handler_set)
    Region$$Table$$Base                      0x00022298   Number         0  anon$$obj.o(Region$$Table)
    Region$$Table$$Limit                     0x000222b8   Number         0  anon$$obj.o(Region$$Table)
    Image$$RW_IRAM1$$Base                    0x200033b0   Number         0  anon$$obj.o ABSOLUTE
    nrf_nvic_state                           0x2000350c   Data           8  app_util_platform.o(.data)
    SystemCoreClock                          0x20003544   Data           4  system_nrf51.o(.data)
    fs_data$$Base                            0x20003548   Number         0  fds.o(fs_data)
    fs_data$$Limit                           0x20003558   Number         0  fds.o(fs_data)
    __initial_sp                             0x20004878   Data           0  arm_startup_nrf51.o(STACK)



==============================================================================

Memory Map of the image

  Image Entry point : 0x0001b0c1

  Load Region LR_IROM1 (Base: 0x0001b000, Size: 0x00007460, Max: 0x00025000, ABSOLUTE, COMPRESSED[0x000072f0])

    Execution Region ER_IROM1 (Exec base: 0x0001b000, Load base: 0x0001b000, Size: 0x000072b8, Max: 0x00025000, ABSOLUTE)

    Exec Addr    Load Addr    Size         Type   Attr      Idx    E Section Name        Object

    0x0001b000   0x0001b000   0x000000c0   Data   RO         4510    RESET               arm_startup_nrf51.o
    0x0001b0c0   0x0001b0c0   0x00000000   Code   RO         4552  * .ARM.Collect$$$$00000000  mc_p.l(entry.o)
    0x0001b0c0   0x0001b0c0   0x00000004   Code   RO         4573    .ARM.Collect$$$$00000001  mc_p.l(entry2.o)
    0x0001b0c4   0x0001b0c4   0x00000004   Code   RO         4576    .ARM.Collect$$$$00000004  mc_p.l(entry5.o)
    0x0001b0c8   0x0001b0c8   0x00000000   Code   RO         4578    .ARM.Collect$$$$00000008  mc_p.l(entry7b.o)
    0x0001b0c8   0x0001b0c8   0x00000000   Code   RO         4580    .ARM.Collect$$$$0000000A  mc_p.l(entry8b.o)
    0x0001b0c8   0x0001b0c8   0x00000008   Code   RO         4581    .ARM.Collect$$$$0000000B  mc_p.l(entry9a.o)
    0x0001b0d0   0x0001b0d0   0x00000000   Code   RO         4583    .ARM.Collect$$$$0000000D  mc_p.l(entry10a.o)
    0x0001b0d0   0x0001b0d0   0x00000000   Code   RO         4585    .ARM.Collect$$$$0000000F  mc_p.l(entry11a.o)
    0x0001b0d0   0x0001b0d0   0x00000004   Code   RO         4574    .ARM.Collect$$$$00002712  mc_p.l(entry2.o)
    0x0001b0d4   0x0001b0d4   0x00000038   Code   RO         4511    .text               arm_startup_nrf51.o
    0x0001b10c   0x0001b10c   0x0000002c   Code   RO         4555    .text               mc_p.l(uidiv.o)
    0x0001b138   0x0001b138   0x00000040   Code   RO         4559    .text               mc_p.l(memmovea.o)
    0x0001b178   0x0001b178   0x00000024   Code   RO         4561    .text               mc_p.l(memseta.o)
    0x0001b19c   0x0001b19c   0x0000000e   Code   RO         4563    .text               mc_p.l(strlen.o)
    0x0001b1aa   0x0001b1aa   0x0000001a   Code   RO         4565    .text               mc_p.l(memcmp.o)
    0x0001b1c4   0x0001b1c4   0x00000024   Code   RO         4587    .text               mc_p.l(init.o)
    0x0001b1e8   0x0001b1e8   0x00000056   Code   RO         4597    .text               mc_p.l(__dczerorl2.o)
    0x0001b23e   0x0001b23e   0x00000002   PAD
    0x0001b240   0x0001b240   0x00000178   Code   RO         2936    i.GPIOTE_IRQHandler  nrf_drv_gpiote.o
    0x0001b3b8   0x0001b3b8   0x00000044   Code   RO         3445    i.NVIC_SetPriority  app_timer.o
    0x0001b3fc   0x0001b3fc   0x00000054   Code   RO         2733    i.POWER_CLOCK_IRQHandler  nrf_drv_clock.o
    0x0001b450   0x0001b450   0x00000020   Code   RO         3446    i.RTC1_IRQHandler   app_timer.o
    0x0001b470   0x0001b470   0x00000008   Code   RO         3447    i.SWI0_IRQHandler   app_timer.o
    0x0001b478   0x0001b478   0x00000020   Code   RO         4377    i.SWI2_IRQHandler   softdevice_handler.o
    0x0001b498   0x0001b498   0x000000a0   Code   RO         4518    i.SystemInit        system_nrf51.o
    0x0001b538   0x0001b538   0x00000014   Code   RO         3151    i.UART0_IRQHandler  nrf_drv_uart.o
    0x0001b54c   0x0001b54c   0x0000001a   Code   RO          166    i.__ARM_common_switch8  main.o
    0x0001b566   0x0001b566   0x0000000e   Code   RO         4591    i.__scatterload_copy  mc_p.l(handlers.o)
    0x0001b574   0x0001b574   0x00000002   Code   RO         4592    i.__scatterload_null  mc_p.l(handlers.o)
    0x0001b576   0x0001b576   0x0000000e   Code   RO         4593    i.__scatterload_zeroinit  mc_p.l(handlers.o)
    0x0001b584   0x0001b584   0x0000001c   Code   RO         4378    i.__sd_nvic_app_accessible_irq  softdevice_handler.o
    0x0001b5a0   0x0001b5a0   0x00000028   Code   RO         1326    i.addr_compare      id_manager.o
    0x0001b5c8   0x0001b5c8   0x0000018e   Code   RO          735    i.adv_data_encode   ble_advdata.o
    0x0001b756   0x0001b756   0x00000002   PAD
    0x0001b758   0x0001b758   0x00000068   Code   RO          811    i.adv_mode_next_avail_get  ble_advertising.o
    0x0001b7c0   0x0001b7c0   0x0000003c   Code   RO          655    i.advertising_buttons_configure  bsp_btn_ble.o
    0x0001b7fc   0x0001b7fc   0x00000012   Code   RO            3    i.advertising_start  main.o
    0x0001b80e   0x0001b80e   0x0000004e   Code   RO         1328    i.ah                id_manager.o
    0x0001b85c   0x0001b85c   0x0000001c   Code   RO         3422    i.app_error_fault_handler  app_error_weak.o
    0x0001b878   0x0001b878   0x00000018   Code   RO         3384    i.app_error_handler_bare  app_error.o
    0x0001b890   0x0001b890   0x0000002c   Code   RO         3450    i.app_timer_create  app_timer.o
    0x0001b8bc   0x0001b8bc   0x00000074   Code   RO         3451    i.app_timer_init    app_timer.o
    0x0001b930   0x0001b930   0x00000088   Code   RO         3452    i.app_timer_start   app_timer.o
    0x0001b9b8   0x0001b9b8   0x00000028   Code   RO         3453    i.app_timer_stop    app_timer.o
    0x0001b9e0   0x0001b9e0   0x0000003c   Code   RO         3590    i.app_util_critical_region_enter  app_util_platform.o
    0x0001ba1c   0x0001ba1c   0x0000002c   Code   RO         3591    i.app_util_critical_region_exit  app_util_platform.o
    0x0001ba48   0x0001ba48   0x0000005c   Code   RO            4    i.application_timers_start  main.o
    0x0001baa4   0x0001baa4   0x000000a0   Code   RO         2343    i.auth_status_success_process  security_dispatcher.o
    0x0001bb44   0x0001bb44   0x00000138   Code   RO         2576    i.battery_level_char_add  ble_bas.o
    0x0001bc7c   0x0001bc7c   0x00000040   Code   RO            6    i.battery_level_meas_timeout_handler  main.o
    0x0001bcbc   0x0001bcbc   0x00000068   Code   RO          736    i.ble_advdata_set   ble_advdata.o
    0x0001bd24   0x0001bd24   0x0000015c   Code   RO          812    i.ble_advertising_init  ble_advertising.o
    0x0001be80   0x0001be80   0x00000058   Code   RO          813    i.ble_advertising_on_ble_evt  ble_advertising.o
    0x0001bed8   0x0001bed8   0x00000030   Code   RO          814    i.ble_advertising_on_sys_evt  ble_advertising.o
    0x0001bf08   0x0001bf08   0x00000108   Code   RO          817    i.ble_advertising_start  ble_advertising.o
    0x0001c010   0x0001c010   0x00000074   Code   RO         2577    i.ble_bas_battery_level_update  ble_bas.o
    0x0001c084   0x0001c084   0x00000048   Code   RO         2578    i.ble_bas_init      ble_bas.o
    0x0001c0cc   0x0001c0cc   0x00000060   Code   RO         2579    i.ble_bas_on_ble_evt  ble_bas.o
    0x0001c12c   0x0001c12c   0x00000054   Code   RO          896    i.ble_conn_params_init  ble_conn_params.o
    0x0001c180   0x0001c180   0x00000090   Code   RO          897    i.ble_conn_params_on_ble_evt  ble_conn_params.o
    0x0001c210   0x0001c210   0x00000014   Code   RO          962    i.ble_conn_state_conn_handles  ble_conn_state.o
    0x0001c224   0x0001c224   0x00000014   Code   RO          963    i.ble_conn_state_encrypted  ble_conn_state.o
    0x0001c238   0x0001c238   0x00000014   Code   RO          965    i.ble_conn_state_mitm_protected  ble_conn_state.o
    0x0001c24c   0x0001c24c   0x000000f8   Code   RO          969    i.ble_conn_state_on_ble_evt  ble_conn_state.o
    0x0001c344   0x0001c344   0x00000034   Code   RO          971    i.ble_conn_state_role  ble_conn_state.o
    0x0001c378   0x0001c378   0x00000030   Code   RO          973    i.ble_conn_state_user_flag_acquire  ble_conn_state.o
    0x0001c3a8   0x0001c3a8   0x00000018   Code   RO          974    i.ble_conn_state_user_flag_collection  ble_conn_state.o
    0x0001c3c0   0x0001c3c0   0x00000024   Code   RO          975    i.ble_conn_state_user_flag_get  ble_conn_state.o
    0x0001c3e4   0x0001c3e4   0x00000028   Code   RO          976    i.ble_conn_state_user_flag_set  ble_conn_state.o
    0x0001c40c   0x0001c40c   0x0000005e   Code   RO          737    i.ble_device_addr_encode  ble_advdata.o
    0x0001c46a   0x0001c46a   0x00000002   PAD
    0x0001c46c   0x0001c46c   0x00000140   Code   RO         2613    i.ble_dis_init      ble_dis.o
    0x0001c5ac   0x0001c5ac   0x00000048   Code   RO            7    i.ble_evt_dispatch  main.o
    0x0001c5f4   0x0001c5f4   0x00000058   Code   RO         2651    i.ble_hrs_heart_rate_measurement_send  ble_hrs.o
    0x0001c64c   0x0001c64c   0x00000060   Code   RO         2652    i.ble_hrs_init      ble_hrs.o
    0x0001c6ac   0x0001c6ac   0x00000052   Code   RO         2653    i.ble_hrs_on_ble_evt  ble_hrs.o
    0x0001c6fe   0x0001c6fe   0x00000012   Code   RO         2654    i.ble_hrs_on_gatt_evt  ble_hrs.o
    0x0001c710   0x0001c710   0x0000002e   Code   RO         2655    i.ble_hrs_rr_interval_add  ble_hrs.o
    0x0001c73e   0x0001c73e   0x00000006   Code   RO         2657    i.ble_hrs_sensor_contact_detected_update  ble_hrs.o
    0x0001c744   0x0001c744   0x00000012   Code   RO         1089    i.ble_srv_ascii_to_utf8  ble_srv_common.o
    0x0001c756   0x0001c756   0x0000000e   Code   RO         1091    i.ble_srv_is_notification_enabled  ble_srv_common.o
    0x0001c764   0x0001c764   0x0000000c   Code   RO         1092    i.ble_srv_report_ref_encode  ble_srv_common.o
    0x0001c770   0x0001c770   0x00000070   Code   RO            8    i.ble_stack_init    main.o
    0x0001c7e0   0x0001c7e0   0x00000088   Code   RO         2659    i.body_sensor_location_char_add  ble_hrs.o
    0x0001c868   0x0001c868   0x0000000c   Code   RO          432    i.bsp_board_button_idx_to_pin  boards.o
    0x0001c874   0x0001c874   0x00000020   Code   RO          436    i.bsp_board_led_invert  boards.o
    0x0001c894   0x0001c894   0x00000014   Code   RO          437    i.bsp_board_led_off  boards.o
    0x0001c8a8   0x0001c8a8   0x00000014   Code   RO          438    i.bsp_board_led_on  boards.o
    0x0001c8bc   0x0001c8bc   0x00000020   Code   RO          439    i.bsp_board_led_state_get  boards.o
    0x0001c8dc   0x0001c8dc   0x00000012   Code   RO          441    i.bsp_board_leds_off  boards.o
    0x0001c8ee   0x0001c8ee   0x00000012   Code   RO          442    i.bsp_board_leds_on  boards.o
    0x0001c900   0x0001c900   0x00000024   Code   RO          443    i.bsp_board_pin_to_button_idx  boards.o
    0x0001c924   0x0001c924   0x00000078   Code   RO          657    i.bsp_btn_ble_on_ble_evt  bsp_btn_ble.o
    0x0001c99c   0x0001c99c   0x00000022   Code   RO          658    i.bsp_btn_ble_sleep_mode_prepare  bsp_btn_ble.o
    0x0001c9be   0x0001c9be   0x00000002   PAD
    0x0001c9c0   0x0001c9c0   0x00000094   Code   RO          545    i.bsp_button_event_handler  bsp.o
    0x0001ca54   0x0001ca54   0x00000048   Code   RO          549    i.bsp_event_to_button_action_assign  bsp.o
    0x0001ca9c   0x0001ca9c   0x0000001c   Code   RO          550    i.bsp_indication_set  bsp.o
    0x0001cab8   0x0001cab8   0x00000180   Code   RO          552    i.bsp_led_indication  bsp.o
    0x0001cc38   0x0001cc38   0x00000010   Code   RO          554    i.bsp_wakeup_button_enable  bsp.o
    0x0001cc48   0x0001cc48   0x0000001c   Code   RO         2937    i.channel_free      nrf_drv_gpiote.o
    0x0001cc64   0x0001cc64   0x00000048   Code   RO         2938    i.channel_port_alloc  nrf_drv_gpiote.o
    0x0001ccac   0x0001ccac   0x00000010   Code   RO         2939    i.channel_port_get  nrf_drv_gpiote.o
    0x0001ccbc   0x0001ccbc   0x00000098   Code   RO         2614    i.char_add          ble_dis.o
    0x0001cd54   0x0001cd54   0x00000020   Code   RO         3962    i.check_config      fstorage.o
    0x0001cd74   0x0001cd74   0x00000018   Code   RO         3660    i.chunk_queue_next  fds.o
    0x0001cd8c   0x0001cd8c   0x0000003c   Code   RO         1907    i.claim             peer_id.o
    0x0001cdc8   0x0001cdc8   0x00000028   Code   RO         2734    i.clock_clk_started_notify  nrf_drv_clock.o
    0x0001cdf0   0x0001cdf0   0x000000a8   Code   RO         3455    i.compare_reg_update  app_timer.o
    0x0001ce98   0x0001ce98   0x00000088   Code   RO          738    i.conn_int_encode   ble_advdata.o
    0x0001cf20   0x0001cf20   0x00000008   Code   RO           10    i.conn_params_error_handler  main.o
    0x0001cf28   0x0001cf28   0x00000068   Code   RO          899    i.conn_params_negotiation  ble_conn_params.o
    0x0001cf90   0x0001cf90   0x0000008c   Code   RO         3661    i.delete_execute    fds.o
    0x0001d01c   0x0001d01c   0x00000040   Code   RO         3456    i.elapsed_ticks_acquire  app_timer.o
    0x0001d05c   0x0001d05c   0x00000030   Code   RO         2344    i.encryption_failure  security_dispatcher.o
    0x0001d08c   0x0001d08c   0x0000006a   Code   RO         3662    i.event_prepare     fds.o
    0x0001d0f6   0x0001d0f6   0x00000002   PAD
    0x0001d0f8   0x0001d0f8   0x00000020   Code   RO         3663    i.event_send        fds.o
    0x0001d118   0x0001d118   0x00000032   Code   RO         2454    i.events_send_from_err_code  security_manager.o
    0x0001d14a   0x0001d14a   0x00000002   PAD
    0x0001d14c   0x0001d14c   0x0000000c   Code   RO         1144    i.evt_send          gatt_cache_manager.o
    0x0001d158   0x0001d158   0x0000001c   Code   RO         1329    i.evt_send          id_manager.o
    0x0001d174   0x0001d174   0x00000028   Code   RO         1993    i.evt_send          peer_manager.o
    0x0001d19c   0x0001d19c   0x0000001c   Code   RO         2345    i.evt_send          security_dispatcher.o
    0x0001d1b8   0x0001d1b8   0x0000000c   Code   RO         2455    i.evt_send          security_manager.o
    0x0001d1c4   0x0001d1c4   0x00000002   Code   RO           11    i.fds_evt_handler   main.o
    0x0001d1c6   0x0001d1c6   0x00000002   PAD
    0x0001d1c8   0x0001d1c8   0x0000011c   Code   RO         1593    i.fds_evt_handler   peer_data_storage.o
    0x0001d2e4   0x0001d2e4   0x0000004c   Code   RO         3665    i.fds_file_delete   fds.o
    0x0001d330   0x0001d330   0x00000048   Code   RO         3666    i.fds_gc            fds.o
    0x0001d378   0x0001d378   0x00000088   Code   RO         3667    i.fds_init          fds.o
    0x0001d400   0x0001d400   0x00000040   Code   RO         3668    i.fds_record_close  fds.o
    0x0001d440   0x0001d440   0x0000000e   Code   RO         3670    i.fds_record_find   fds.o
    0x0001d44e   0x0001d44e   0x00000010   Code   RO         3671    i.fds_record_find_by_key  fds.o
    0x0001d45e   0x0001d45e   0x00000010   Code   RO         3672    i.fds_record_find_in_file  fds.o
    0x0001d46e   0x0001d46e   0x00000014   Code   RO         3673    i.fds_record_id_from_desc  fds.o
    0x0001d482   0x0001d482   0x00000002   PAD
    0x0001d484   0x0001d484   0x00000044   Code   RO         3675    i.fds_record_open   fds.o
    0x0001d4c8   0x0001d4c8   0x00000014   Code   RO         3676    i.fds_record_update  fds.o
    0x0001d4dc   0x0001d4dc   0x0000000c   Code   RO         3677    i.fds_record_write  fds.o
    0x0001d4e8   0x0001d4e8   0x00000012   Code   RO         3678    i.fds_record_write_reserved  fds.o
    0x0001d4fa   0x0001d4fa   0x00000002   PAD
    0x0001d4fc   0x0001d4fc   0x00000024   Code   RO         3679    i.fds_register      fds.o
    0x0001d520   0x0001d520   0x00000034   Code   RO         3680    i.fds_reserve       fds.o
    0x0001d554   0x0001d554   0x00000048   Code   RO         3681    i.fds_reserve_cancel  fds.o
    0x0001d59c   0x0001d59c   0x0000000a   Code   RO         1594    i.file_id_to_peer_id  peer_data_storage.o
    0x0001d5a6   0x0001d5a6   0x00000002   PAD
    0x0001d5a8   0x0001d5a8   0x00000018   Code   RO         1595    i.file_id_within_pm_range  peer_data_storage.o
    0x0001d5c0   0x0001d5c0   0x00000010   Code   RO         3683    i.flag_clear        fds.o
    0x0001d5d0   0x0001d5d0   0x00000012   Code   RO         2346    i.flag_id_init      security_dispatcher.o
    0x0001d5e2   0x0001d5e2   0x00000012   Code   RO         2456    i.flag_id_init      security_manager.o
    0x0001d5f4   0x0001d5f4   0x00000010   Code   RO         3684    i.flag_set          fds.o
    0x0001d604   0x0001d604   0x0000005c   Code   RO         2457    i.flags_set_from_err_code  security_manager.o
    0x0001d660   0x0001d660   0x0000007c   Code   RO         3963    i.fs_erase          fstorage.o
    0x0001d6dc   0x0001d6dc   0x0000000a   Code   RO         3685    i.fs_event_handler  fds.o
    0x0001d6e6   0x0001d6e6   0x00000002   PAD
    0x0001d6e8   0x0001d6e8   0x000000ac   Code   RO         3965    i.fs_init           fstorage.o
    0x0001d794   0x0001d794   0x00000018   Code   RO         3968    i.fs_queued_op_count_get  fstorage.o
    0x0001d7ac   0x0001d7ac   0x00000084   Code   RO         3969    i.fs_store          fstorage.o
    0x0001d830   0x0001d830   0x00000068   Code   RO         3970    i.fs_sys_event_handler  fstorage.o
    0x0001d898   0x0001d898   0x00000060   Code   RO           12    i.gap_params_init   main.o
    0x0001d8f8   0x0001d8f8   0x00000010   Code   RO           13    i.gatt_evt_handler  main.o
    0x0001d908   0x0001d908   0x0000001c   Code   RO           14    i.gatt_init         main.o
    0x0001d924   0x0001d924   0x00000068   Code   RO         3686    i.gc_execute        fds.o
    0x0001d98c   0x0001d98c   0x0000004c   Code   RO         3687    i.gc_next_page      fds.o
    0x0001d9d8   0x0001d9d8   0x0000004c   Code   RO         3688    i.gc_page_erase     fds.o
    0x0001da24   0x0001da24   0x00000034   Code   RO         3689    i.gc_record_copy    fds.o
    0x0001da58   0x0001da58   0x00000020   Code   RO         3690    i.gc_record_find_next  fds.o
    0x0001da78   0x0001da78   0x00000080   Code   RO         3691    i.gc_state_advance  fds.o
    0x0001daf8   0x0001daf8   0x000000f0   Code   RO         1145    i.gcm_ble_evt_handler  gatt_cache_manager.o
    0x0001dbe8   0x0001dbe8   0x00000068   Code   RO         1146    i.gcm_gscm_evt_handler  gatt_cache_manager.o
    0x0001dc50   0x0001dc50   0x0000002c   Code   RO         1147    i.gcm_im_evt_handler  gatt_cache_manager.o
    0x0001dc7c   0x0001dc7c   0x00000048   Code   RO         1148    i.gcm_init          gatt_cache_manager.o
    0x0001dcc4   0x0001dcc4   0x0000004c   Code   RO         1149    i.gcm_local_database_has_changed  gatt_cache_manager.o
    0x0001dd10   0x0001dd10   0x00000010   Code   RO         1152    i.gcm_smd_evt_handler  gatt_cache_manager.o
    0x0001dd20   0x0001dd20   0x00000038   Code   RO         1330    i.get_connection_by_conn_handle  id_manager.o
    0x0001dd58   0x0001dd58   0x00000030   Code   RO         1331    i.get_free_connection  id_manager.o
    0x0001dd88   0x0001dd88   0x0000001c   Code   RO         1248    i.gscm_db_change_notification_done  gatts_cache_manager.o
    0x0001dda4   0x0001dda4   0x00000014   Code   RO         1249    i.gscm_init         gatts_cache_manager.o
    0x0001ddb8   0x0001ddb8   0x0000001c   Code   RO         1250    i.gscm_local_database_has_changed  gatts_cache_manager.o
    0x0001ddd4   0x0001ddd4   0x0000006c   Code   RO         1251    i.gscm_local_db_cache_apply  gatts_cache_manager.o
    0x0001de40   0x0001de40   0x00000084   Code   RO         1253    i.gscm_local_db_cache_update  gatts_cache_manager.o
    0x0001dec4   0x0001dec4   0x00000050   Code   RO         1254    i.gscm_pdb_evt_handler  gatts_cache_manager.o
    0x0001df14   0x0001df14   0x0000001c   Code   RO         1255    i.gscm_service_changed_ind_needed  gatts_cache_manager.o
    0x0001df30   0x0001df30   0x0000002c   Code   RO         1256    i.gscm_service_changed_ind_send  gatts_cache_manager.o
    0x0001df5c   0x0001df5c   0x0000001c   Code   RO         3692    i.header_is_valid   fds.o
    0x0001df78   0x0001df78   0x0000005c   Code   RO           15    i.heart_rate_meas_timeout_handler  main.o
    0x0001dfd4   0x0001dfd4   0x000000b0   Code   RO         2660    i.heart_rate_measurement_char_add  ble_hrs.o
    0x0001e084   0x0001e084   0x0000008a   Code   RO         2661    i.hrm_encode        ble_hrs.o
    0x0001e10e   0x0001e10e   0x00000040   Code   RO         1332    i.im_address_resolve  id_manager.o
    0x0001e14e   0x0001e14e   0x00000002   PAD
    0x0001e150   0x0001e150   0x0000002c   Code   RO         1333    i.im_ble_addr_get   id_manager.o
    0x0001e17c   0x0001e17c   0x000000a8   Code   RO         1334    i.im_ble_evt_handler  id_manager.o
    0x0001e224   0x0001e224   0x0000002c   Code   RO         1335    i.im_conn_handle_get  id_manager.o
    0x0001e250   0x0001e250   0x00000048   Code   RO         1339    i.im_init           id_manager.o
    0x0001e298   0x0001e298   0x00000038   Code   RO         1340    i.im_is_duplicate_bonding_data  id_manager.o
    0x0001e2d0   0x0001e2d0   0x0000001c   Code   RO         1341    i.im_master_id_is_valid  id_manager.o
    0x0001e2ec   0x0001e2ec   0x0000002c   Code   RO         1342    i.im_master_ids_compare  id_manager.o
    0x0001e318   0x0001e318   0x00000008   Code   RO         1343    i.im_new_peer_id    id_manager.o
    0x0001e320   0x0001e320   0x0000006e   Code   RO         1344    i.im_pdb_evt_handler  id_manager.o
    0x0001e38e   0x0001e38e   0x00000002   PAD
    0x0001e390   0x0001e390   0x0000002c   Code   RO         1345    i.im_peer_free      id_manager.o
    0x0001e3bc   0x0001e3bc   0x00000020   Code   RO         1346    i.im_peer_id_get_by_conn_handle  id_manager.o
    0x0001e3dc   0x0001e3dc   0x00000044   Code   RO         1347    i.im_peer_id_get_by_master_id  id_manager.o
    0x0001e420   0x0001e420   0x00000040   Code   RO           16    i.in_pin_handler    main.o
    0x0001e460   0x0001e460   0x000000c0   Code   RO         3693    i.init_execute      fds.o
    0x0001e520   0x0001e520   0x00000080   Code   RO         4379    i.intern_softdevice_events_execute  softdevice_handler.o
    0x0001e5a0   0x0001e5a0   0x0000001c   Code   RO          900    i.is_conn_params_ok  ble_conn_params.o
    0x0001e5bc   0x0001e5bc   0x00000048   Code   RO         4519    i.is_manual_peripheral_setup_needed  system_nrf51.o
    0x0001e604   0x0001e604   0x00000016   Code   RO         1352    i.is_valid_irk      id_manager.o
    0x0001e61a   0x0001e61a   0x0000000c   Code   RO         3694    i.is_word_aligned   fds.o
    0x0001e626   0x0001e626   0x00000002   PAD
    0x0001e628   0x0001e628   0x0000009c   Code   RO         2458    i.link_secure       security_manager.o
    0x0001e6c4   0x0001e6c4   0x00000088   Code   RO         2347    i.link_secure_central  security_dispatcher.o
    0x0001e74c   0x0001e74c   0x000000c6   Code   RO         2348    i.link_secure_central_existing_peer  security_dispatcher.o
    0x0001e812   0x0001e812   0x00000002   PAD
    0x0001e814   0x0001e814   0x00000074   Code   RO         2349    i.link_secure_central_new_peer  security_dispatcher.o
    0x0001e888   0x0001e888   0x00000050   Code   RO         2350    i.link_secure_failure  security_dispatcher.o
    0x0001e8d8   0x0001e8d8   0x0000005c   Code   RO         2459    i.link_secure_pending_process  security_manager.o
    0x0001e934   0x0001e934   0x000000ac   Code   RO         3457    i.list_deletions_handler  app_timer.o
    0x0001e9e0   0x0001e9e0   0x000000bc   Code   RO         3458    i.list_insertions_handler  app_timer.o
    0x0001ea9c   0x0001ea9c   0x00000078   Code   RO         1153    i.local_db_apply_in_evt  gatt_cache_manager.o
    0x0001eb14   0x0001eb14   0x00000078   Code   RO         1154    i.local_db_update_in_evt  gatt_cache_manager.o
    0x0001eb8c   0x0001eb8c   0x00000032   Code   RO         2294    i.lock_by_mask      pm_mutex.o
    0x0001ebbe   0x0001ebbe   0x00000002   PAD
    0x0001ebc0   0x0001ebc0   0x00000120   Code   RO           17    i.main              main.o
    0x0001ece0   0x0001ece0   0x00000068   Code   RO          739    i.manuf_specific_data_encode  ble_advdata.o
    0x0001ed48   0x0001ed48   0x0000009e   Code   RO          740    i.name_encode       ble_advdata.o
    0x0001ede6   0x0001ede6   0x00000002   PAD
    0x0001ede8   0x0001ede8   0x0000005c   Code   RO         1353    i.new_connection    id_manager.o
    0x0001ee44   0x0001ee44   0x00000034   Code   RO         1908    i.next_id_get       peer_id.o
    0x0001ee78   0x0001ee78   0x00000010   Code   RO         2940    i.nrf_bitmask_bit_is_set  nrf_drv_gpiote.o
    0x0001ee88   0x0001ee88   0x00000004   Code   RO         1523    i.nrf_ble_gatt_init  nrf_ble_gatt.o
    0x0001ee8c   0x0001ee8c   0x00000002   Code   RO         1524    i.nrf_ble_gatt_on_ble_evt  nrf_ble_gatt.o
    0x0001ee8e   0x0001ee8e   0x00000010   Code   RO         2738    i.nrf_clock_event_check  nrf_drv_clock.o
    0x0001ee9e   0x0001ee9e   0x00000002   PAD
    0x0001eea0   0x0001eea0   0x00000030   Code   RO         3459    i.nrf_delay_us      app_timer.o
    0x0001eed0   0x0001eed0   0x00000048   Code   RO         2745    i.nrf_drv_clock_init  nrf_drv_clock.o
    0x0001ef18   0x0001ef18   0x00000034   Code   RO         2752    i.nrf_drv_clock_on_sd_enable  nrf_drv_clock.o
    0x0001ef4c   0x0001ef4c   0x0000000c   Code   RO         2753    i.nrf_drv_clock_on_soc_event  nrf_drv_clock.o
    0x0001ef58   0x0001ef58   0x00000060   Code   RO         2895    i.nrf_drv_common_irq_enable  nrf_drv_common.o
    0x0001efb8   0x0001efb8   0x00000098   Code   RO         2943    i.nrf_drv_gpiote_in_event_enable  nrf_drv_gpiote.o
    0x0001f050   0x0001f050   0x000000a8   Code   RO         2944    i.nrf_drv_gpiote_in_init  nrf_drv_gpiote.o
    0x0001f0f8   0x0001f0f8   0x0000005c   Code   RO         2947    i.nrf_drv_gpiote_init  nrf_drv_gpiote.o
    0x0001f154   0x0001f154   0x00000010   Code   RO         2948    i.nrf_drv_gpiote_is_init  nrf_drv_gpiote.o
    0x0001f164   0x0001f164   0x00000028   Code   RO         2960    i.nrf_gpio_cfg      nrf_drv_gpiote.o
    0x0001f18c   0x0001f18c   0x00000014   Code   RO           18    i.nrf_gpio_cfg_output  main.o
    0x0001f1a0   0x0001f1a0   0x00000022   Code   RO          557    i.nrf_gpio_cfg_sense_set  bsp.o
    0x0001f1c2   0x0001f1c2   0x00000022   Code   RO         2962    i.nrf_gpio_cfg_sense_set  nrf_drv_gpiote.o
    0x0001f1e4   0x0001f1e4   0x00000018   Code   RO          446    i.nrf_gpio_pin_write  boards.o
    0x0001f1fc   0x0001f1fc   0x00000028   Code   RO         2963    i.nrf_gpio_ports_read  nrf_drv_gpiote.o
    0x0001f224   0x0001f224   0x00000010   Code   RO         2964    i.nrf_gpiote_event_clear  nrf_drv_gpiote.o
    0x0001f234   0x0001f234   0x00000014   Code   RO         2965    i.nrf_gpiote_event_is_set  nrf_drv_gpiote.o
    0x0001f248   0x0001f248   0x0000000a   Code   RO         3169    i.nrf_uart_event_check  nrf_drv_uart.o
    0x0001f252   0x0001f252   0x00000010   Code   RO         3170    i.nrf_uart_int_enable_check  nrf_drv_uart.o
    0x0001f262   0x0001f262   0x00000020   Code   RO           19    i.on_adv_evt        main.o
    0x0001f282   0x0001f282   0x00000002   PAD
    0x0001f284   0x0001f284   0x000000a0   Code   RO           20    i.on_ble_evt        main.o
    0x0001f324   0x0001f324   0x00000020   Code   RO           21    i.on_conn_params_evt  main.o
    0x0001f344   0x0001f344   0x00000054   Code   RO         3971    i.on_operation_success  fstorage.o
    0x0001f398   0x0001f398   0x00000078   Code   RO         3695    i.op_enqueue        fds.o
    0x0001f410   0x0001f410   0x00000012   Code   RO         3696    i.page_offsets_update  fds.o
    0x0001f422   0x0001f422   0x00000002   PAD
    0x0001f424   0x0001f424   0x00000058   Code   RO         3697    i.page_scan         fds.o
    0x0001f47c   0x0001f47c   0x0000001c   Code   RO         3698    i.page_tag_write_data  fds.o
    0x0001f498   0x0001f498   0x00000024   Code   RO         3699    i.page_tag_write_swap  fds.o
    0x0001f4bc   0x0001f4bc   0x000000f0   Code   RO         3700    i.pages_init        fds.o
    0x0001f5ac   0x0001f5ac   0x0000006c   Code   RO         2351    i.pairing_failure   security_dispatcher.o
    0x0001f618   0x0001f618   0x0000003c   Code   RO         2460    i.params_reply_pending_process  security_manager.o
    0x0001f654   0x0001f654   0x0000001c   Code   RO         1748    i.pdb_evt_send      peer_database.o
    0x0001f670   0x0001f670   0x0000004c   Code   RO         1749    i.pdb_init          peer_database.o
    0x0001f6bc   0x0001f6bc   0x00000008   Code   RO         1751    i.pdb_next_deleted_peer_id_get  peer_database.o
    0x0001f6c4   0x0001f6c4   0x00000008   Code   RO         1752    i.pdb_next_peer_id_get  peer_database.o
    0x0001f6cc   0x0001f6cc   0x00000134   Code   RO         1753    i.pdb_pds_evt_handler  peer_database.o
    0x0001f800   0x0001f800   0x00000008   Code   RO         1754    i.pdb_peer_allocate  peer_database.o
    0x0001f808   0x0001f808   0x0000000a   Code   RO         1756    i.pdb_peer_data_ptr_get  peer_database.o
    0x0001f812   0x0001f812   0x0000004a   Code   RO         1757    i.pdb_peer_free     peer_database.o
    0x0001f85c   0x0001f85c   0x0000000c   Code   RO         1758    i.pdb_raw_store     peer_database.o
    0x0001f868   0x0001f868   0x00000108   Code   RO         1759    i.pdb_write_buf_get  peer_database.o
    0x0001f970   0x0001f970   0x0000002a   Code   RO         1760    i.pdb_write_buf_release  peer_database.o
    0x0001f99a   0x0001f99a   0x00000002   PAD
    0x0001f99c   0x0001f99c   0x000000c8   Code   RO         1761    i.pdb_write_buf_store  peer_database.o
    0x0001fa64   0x0001fa64   0x00000068   Code   RO         1762    i.pdb_write_buf_store_prepare  peer_database.o
    0x0001facc   0x0001facc   0x0000000c   Code   RO         1596    i.pds_evt_send      peer_data_storage.o
    0x0001fad8   0x0001fad8   0x00000070   Code   RO         1597    i.pds_init          peer_data_storage.o
    0x0001fb48   0x0001fb48   0x00000008   Code   RO         1598    i.pds_next_deleted_peer_id_get  peer_data_storage.o
    0x0001fb50   0x0001fb50   0x00000008   Code   RO         1599    i.pds_next_peer_id_get  peer_data_storage.o
    0x0001fb58   0x0001fb58   0x00000054   Code   RO         1602    i.pds_peer_data_iterate  peer_data_storage.o
    0x0001fbac   0x0001fbac   0x00000010   Code   RO         1603    i.pds_peer_data_iterate_prepare  peer_data_storage.o
    0x0001fbbc   0x0001fbbc   0x00000070   Code   RO         1604    i.pds_peer_data_read  peer_data_storage.o
    0x0001fc2c   0x0001fc2c   0x000000ae   Code   RO         1605    i.pds_peer_data_store  peer_data_storage.o
    0x0001fcda   0x0001fcda   0x00000002   PAD
    0x0001fcdc   0x0001fcdc   0x00000010   Code   RO         1606    i.pds_peer_id_allocate  peer_data_storage.o
    0x0001fcec   0x0001fcec   0x00000016   Code   RO         1607    i.pds_peer_id_free  peer_data_storage.o
    0x0001fd02   0x0001fd02   0x00000008   Code   RO         1608    i.pds_peer_id_is_allocated  peer_data_storage.o
    0x0001fd0a   0x0001fd0a   0x00000030   Code   RO         1609    i.pds_space_reserve  peer_data_storage.o
    0x0001fd3a   0x0001fd3a   0x00000010   Code   RO         1610    i.pds_space_reserve_cancel  peer_data_storage.o
    0x0001fd4a   0x0001fd4a   0x0000000a   Code   RO         1763    i.peer_data_const_point_to_buffer  peer_database.o
    0x0001fd54   0x0001fd54   0x00000080   Code   RO         1611    i.peer_data_delete  peer_data_storage.o
    0x0001fdd4   0x0001fdd4   0x00000030   Code   RO         1612    i.peer_data_find    peer_data_storage.o
    0x0001fe04   0x0001fe04   0x00000020   Code   RO         1613    i.peer_data_id_is_valid  peer_data_storage.o
    0x0001fe24   0x0001fe24   0x00000014   Code   RO         1764    i.peer_data_point_to_buffer  peer_database.o
    0x0001fe38   0x0001fe38   0x00000010   Code   RO         1909    i.peer_id_allocate  peer_id.o
    0x0001fe48   0x0001fe48   0x00000028   Code   RO         1910    i.peer_id_delete    peer_id.o
    0x0001fe70   0x0001fe70   0x0000001c   Code   RO         1911    i.peer_id_free      peer_id.o
    0x0001fe8c   0x0001fe8c   0x00000010   Code   RO         1912    i.peer_id_get_next_deleted  peer_id.o
    0x0001fe9c   0x0001fe9c   0x00000034   Code   RO         1913    i.peer_id_get_next_used  peer_id.o
    0x0001fed0   0x0001fed0   0x00000028   Code   RO         1914    i.peer_id_init      peer_id.o
    0x0001fef8   0x0001fef8   0x00000018   Code   RO         1915    i.peer_id_is_allocated  peer_id.o
    0x0001ff10   0x0001ff10   0x00000018   Code   RO         1916    i.peer_id_is_deleted  peer_id.o
    0x0001ff28   0x0001ff28   0x0000001c   Code   RO         1354    i.peer_id_set       id_manager.o
    0x0001ff44   0x0001ff44   0x0000000a   Code   RO         1614    i.peer_id_to_file_id  peer_data_storage.o
    0x0001ff4e   0x0001ff4e   0x00000002   PAD
    0x0001ff50   0x0001ff50   0x00000088   Code   RO           22    i.peer_manager_init  main.o
    0x0001ffd8   0x0001ffd8   0x00000018   Code   RO         2966    i.pin_in_use_by_port  nrf_drv_gpiote.o
    0x0001fff0   0x0001fff0   0x00000018   Code   RO         2967    i.pin_in_use_by_te  nrf_drv_gpiote.o
    0x00020008   0x00020008   0x0000005e   Code   RO         2256    i.pm_buffer_block_acquire  pm_buffer.o
    0x00020066   0x00020066   0x00000042   Code   RO         2257    i.pm_buffer_init    pm_buffer.o
    0x000200a8   0x000200a8   0x0000002e   Code   RO         2258    i.pm_buffer_ptr_get  pm_buffer.o
    0x000200d6   0x000200d6   0x0000002a   Code   RO         2259    i.pm_buffer_release  pm_buffer.o
    0x00020100   0x00020100   0x00000008   Code   RO         1995    i.pm_conn_sec_config_reply  peer_manager.o
    0x00020108   0x00020108   0x00000054   Code   RO           23    i.pm_evt_handler    main.o
    0x0002015c   0x0002015c   0x00000080   Code   RO         1999    i.pm_gcm_evt_handler  peer_manager.o
    0x000201dc   0x000201dc   0x00000050   Code   RO         2002    i.pm_im_evt_handler  peer_manager.o
    0x0002022c   0x0002022c   0x00000070   Code   RO         2003    i.pm_init           peer_manager.o
    0x0002029c   0x0002029c   0x00000014   Code   RO         2005    i.pm_local_database_has_changed  peer_manager.o
    0x000202b0   0x000202b0   0x00000010   Code   RO         2295    i.pm_mutex_init     pm_mutex.o
    0x000202c0   0x000202c0   0x0000001c   Code   RO         2296    i.pm_mutex_lock     pm_mutex.o
    0x000202dc   0x000202dc   0x00000034   Code   RO         2297    i.pm_mutex_lock_first_available  pm_mutex.o
    0x00020310   0x00020310   0x00000018   Code   RO         2298    i.pm_mutex_lock_status_get  pm_mutex.o
    0x00020328   0x00020328   0x00000036   Code   RO         2299    i.pm_mutex_unlock   pm_mutex.o
    0x0002035e   0x0002035e   0x00000002   PAD
    0x00020360   0x00020360   0x00000024   Code   RO         2007    i.pm_on_ble_evt     peer_manager.o
    0x00020384   0x00020384   0x0000013c   Code   RO         2008    i.pm_pdb_evt_handler  peer_manager.o
    0x000204c0   0x000204c0   0x00000018   Code   RO         2019    i.pm_peer_delete    peer_manager.o
    0x000204d8   0x000204d8   0x0000003c   Code   RO         2024    i.pm_peers_delete   peer_manager.o
    0x00020514   0x00020514   0x00000030   Code   RO         2027    i.pm_register       peer_manager.o
    0x00020544   0x00020544   0x00000018   Code   RO         2029    i.pm_sec_params_set  peer_manager.o
    0x0002055c   0x0002055c   0x0000014c   Code   RO         2030    i.pm_sm_evt_handler  peer_manager.o
    0x000206a8   0x000206a8   0x00000036   Code   RO         2615    i.pnp_id_encode     ble_dis.o
    0x000206de   0x000206de   0x00000002   PAD
    0x000206e0   0x000206e0   0x0000002c   Code   RO         3972    i.queue_advance     fstorage.o
    0x0002070c   0x0002070c   0x00000038   Code   RO         3973    i.queue_get_next_free  fstorage.o
    0x00020744   0x00020744   0x000000b8   Code   RO         3701    i.queue_process     fds.o
    0x000207fc   0x000207fc   0x0000006c   Code   RO         3974    i.queue_process     fstorage.o
    0x00020868   0x00020868   0x0000001c   Code   RO         3702    i.queue_start       fds.o
    0x00020884   0x00020884   0x0000001c   Code   RO         3975    i.queue_start       fstorage.o
    0x000208a0   0x000208a0   0x00000084   Code   RO         3703    i.record_find       fds.o
    0x00020924   0x00020924   0x000000a0   Code   RO         3704    i.record_find_by_desc  fds.o
    0x000209c4   0x000209c4   0x00000054   Code   RO         3705    i.record_find_next  fds.o
    0x00020a18   0x00020a18   0x00000038   Code   RO         3706    i.record_header_flag_dirty  fds.o
    0x00020a50   0x00020a50   0x0000000a   Code   RO         1615    i.record_key_to_peer_data_id  peer_data_storage.o
    0x00020a5a   0x00020a5a   0x00000002   PAD
    0x00020a5c   0x00020a5c   0x00000018   Code   RO         1616    i.record_key_within_pm_range  peer_data_storage.o
    0x00020a74   0x00020a74   0x0000005c   Code   RO         3707    i.record_write_chunk  fds.o
    0x00020ad0   0x00020ad0   0x00000012   Code   RO         1918    i.release           peer_id.o
    0x00020ae2   0x00020ae2   0x00000002   PAD
    0x00020ae4   0x00020ae4   0x0000008c   Code   RO           24    i.rr_interval_timeout_handler  main.o
    0x00020b70   0x00020b70   0x00000044   Code   RO         3460    i.rtc1_stop         app_timer.o
    0x00020bb4   0x00020bb4   0x00000026   Code   RO         3171    i.rx_byte           nrf_drv_uart.o
    0x00020bda   0x00020bda   0x00000014   Code   RO         3172    i.rx_done_event     nrf_drv_uart.o
    0x00020bee   0x00020bee   0x00000002   PAD
    0x00020bf0   0x00020bf0   0x00000084   Code   RO         4381    i.sd_nvic_EnableIRQ  softdevice_handler.o
    0x00020c74   0x00020c74   0x00000046   Code   RO         4109    i.sdk_mapped_flags_bulk_update_by_key  sdk_mapped_flags.o
    0x00020cba   0x00020cba   0x00000002   PAD
    0x00020cbc   0x00020cbc   0x00000028   Code   RO         4110    i.sdk_mapped_flags_first_key_index_get  sdk_mapped_flags.o
    0x00020ce4   0x00020ce4   0x00000010   Code   RO         4111    i.sdk_mapped_flags_get_by_index  sdk_mapped_flags.o
    0x00020cf4   0x00020cf4   0x00000026   Code   RO         4112    i.sdk_mapped_flags_get_by_key  sdk_mapped_flags.o
    0x00020d1a   0x00020d1a   0x00000046   Code   RO         4113    i.sdk_mapped_flags_key_list_get  sdk_mapped_flags.o
    0x00020d60   0x00020d60   0x0000000e   Code   RO         4115    i.sdk_mapped_flags_update_by_key  sdk_mapped_flags.o
    0x00020d6e   0x00020d6e   0x00000002   PAD
    0x00020d70   0x00020d70   0x000000b4   Code   RO         2352    i.sec_info_request_process  security_dispatcher.o
    0x00020e24   0x00020e24   0x00000076   Code   RO         2461    i.sec_params_verify  security_manager.o
    0x00020e9a   0x00020e9a   0x00000002   PAD
    0x00020e9c   0x00020e9c   0x0000004c   Code   RO         2353    i.sec_proc_start    security_dispatcher.o
    0x00020ee8   0x00020ee8   0x0000001c   Code   RO         2354    i.sec_start_send    security_dispatcher.o
    0x00020f04   0x00020f04   0x00000048   Code   RO         3976    i.send_event        fstorage.o
    0x00020f4c   0x00020f4c   0x0000001c   Code   RO           25    i.sensor_contact_detected_timeout_handler  main.o
    0x00020f68   0x00020f68   0x0000005c   Code   RO           26    i.sensor_simulator_init  main.o
    0x00020fc4   0x00020fc4   0x0000001c   Code   RO         4162    i.sensorsim_decrement  sensorsim.o
    0x00020fe0   0x00020fe0   0x0000001c   Code   RO         4163    i.sensorsim_increment  sensorsim.o
    0x00020ffc   0x00020ffc   0x00000018   Code   RO         4164    i.sensorsim_init    sensorsim.o
    0x00021014   0x00021014   0x0000001a   Code   RO         4165    i.sensorsim_measure  sensorsim.o
    0x0002102e   0x0002102e   0x00000002   PAD
    0x00021030   0x00021030   0x00000058   Code   RO         1155    i.service_changed_pending_flags_check  gatt_cache_manager.o
    0x00021088   0x00021088   0x00000044   Code   RO         1257    i.service_changed_pending_set  gatts_cache_manager.o
    0x000210cc   0x000210cc   0x00000098   Code   RO         1156    i.service_changed_send_in_evt  gatt_cache_manager.o
    0x00021164   0x00021164   0x0000008e   Code   RO          741    i.service_data_encode  ble_advdata.o
    0x000211f2   0x000211f2   0x00000002   PAD
    0x000211f4   0x000211f4   0x000000f0   Code   RO           27    i.services_init     main.o
    0x000212e4   0x000212e4   0x00000058   Code   RO          819    i.set_adv_mode_fast  ble_advertising.o
    0x0002133c   0x0002133c   0x00000054   Code   RO          820    i.set_adv_mode_slow  ble_advertising.o
    0x00021390   0x00021390   0x00000028   Code   RO           28    i.sleep_mode_enter  main.o
    0x000213b8   0x000213b8   0x00000014   Code   RO         2462    i.sm_ble_evt_handler  security_manager.o
    0x000213cc   0x000213cc   0x0000001c   Code   RO         2463    i.sm_conn_sec_config_reply  security_manager.o
    0x000213e8   0x000213e8   0x00000050   Code   RO         2464    i.sm_init           security_manager.o
    0x00021438   0x00021438   0x00000034   Code   RO         2467    i.sm_pdb_evt_handler  security_manager.o
    0x0002146c   0x0002146c   0x00000030   Code   RO         2469    i.sm_sec_params_set  security_manager.o
    0x0002149c   0x0002149c   0x0000007c   Code   RO         2470    i.sm_smd_evt_handler  security_manager.o
    0x00021518   0x00021518   0x000000e4   Code   RO         2355    i.smd_ble_evt_handler  security_dispatcher.o
    0x000215fc   0x000215fc   0x0000003c   Code   RO         2356    i.smd_init          security_dispatcher.o
    0x00021638   0x00021638   0x00000030   Code   RO         2357    i.smd_link_secure   security_dispatcher.o
    0x00021668   0x00021668   0x00000110   Code   RO         2358    i.smd_params_reply  security_dispatcher.o
    0x00021778   0x00021778   0x00000088   Code   RO         2471    i.smd_params_reply_perform  security_manager.o
    0x00021800   0x00021800   0x00000034   Code   RO         2359    i.smd_pdb_evt_handler  security_dispatcher.o
    0x00021834   0x00021834   0x00000014   Code   RO         4382    i.softdevice_ble_evt_handler_set  softdevice_handler.o
    0x00021848   0x00021848   0x00000014   Code   RO         4383    i.softdevice_enable  softdevice_handler.o
    0x0002185c   0x0002185c   0x00000028   Code   RO         4384    i.softdevice_enable_get_default_config  softdevice_handler.o
    0x00021884   0x00021884   0x00000008   Code   RO         4385    i.softdevice_fault_handler  softdevice_handler.o
    0x0002188c   0x0002188c   0x00000058   Code   RO         4386    i.softdevice_handler_init  softdevice_handler.o
    0x000218e4   0x000218e4   0x0000000c   Code   RO         4387    i.softdevice_handler_is_enabled  softdevice_handler.o
    0x000218f0   0x000218f0   0x00000014   Code   RO         4392    i.softdevice_sys_evt_handler_set  softdevice_handler.o
    0x00021904   0x00021904   0x00000010   Code   RO           29    i.sys_evt_dispatch  main.o
    0x00021914   0x00021914   0x0000004e   Code   RO         2616    i.sys_id_encode     ble_dis.o
    0x00021962   0x00021962   0x00000002   PAD
    0x00021964   0x00021964   0x00000084   Code   RO         3461    i.timer_list_handler  app_timer.o
    0x000219e8   0x000219e8   0x00000010   Code   RO         3462    i.timer_list_handler_sched  app_timer.o
    0x000219f8   0x000219f8   0x00000040   Code   RO         3463    i.timer_list_insert  app_timer.o
    0x00021a38   0x00021a38   0x00000048   Code   RO         3464    i.timer_stop_op_schedule  app_timer.o
    0x00021a80   0x00021a80   0x00000080   Code   RO         3465    i.timer_timeouts_check  app_timer.o
    0x00021b00   0x00021b00   0x00000080   Code   RO           30    i.timers_init       main.o
    0x00021b80   0x00021b80   0x0000001e   Code   RO         3174    i.tx_byte           nrf_drv_uart.o
    0x00021b9e   0x00021b9e   0x00000018   Code   RO         3175    i.tx_done_event     nrf_drv_uart.o
    0x00021bb6   0x00021bb6   0x00000128   Code   RO         3176    i.uart_irq_handler  nrf_drv_uart.o
    0x00021cde   0x00021cde   0x0000000a   Code   RO          742    i.uint16_encode     ble_advdata.o
    0x00021ce8   0x00021ce8   0x00000064   Code   RO          901    i.update_timeout_handler  ble_conn_params.o
    0x00021d4c   0x00021d4c   0x00000018   Code   RO          978    i.user_flag_is_acquired  ble_conn_state.o
    0x00021d64   0x00021d64   0x0000002c   Code   RO         3466    i.user_op_alloc     app_timer.o
    0x00021d90   0x00021d90   0x00000030   Code   RO          743    i.uuid_list_encode  ble_advdata.o
    0x00021dc0   0x00021dc0   0x000000ae   Code   RO          744    i.uuid_list_sized_encode  ble_advdata.o
    0x00021e6e   0x00021e6e   0x00000002   PAD
    0x00021e70   0x00021e70   0x00000018   Code   RO          821    i.whitelist_has_entries  ble_advertising.o
    0x00021e88   0x00021e88   0x00000024   Code   RO         1765    i.write_buf_length_words_set  peer_database.o
    0x00021eac   0x00021eac   0x00000024   Code   RO         1766    i.write_buffer_record_find  peer_database.o
    0x00021ed0   0x00021ed0   0x00000028   Code   RO         1767    i.write_buffer_record_find_next  peer_database.o
    0x00021ef8   0x00021ef8   0x00000022   Code   RO         1768    i.write_buffer_record_invalidate  peer_database.o
    0x00021f1a   0x00021f1a   0x00000002   PAD
    0x00021f1c   0x00021f1c   0x00000028   Code   RO         1769    i.write_buffer_record_release  peer_database.o
    0x00021f44   0x00021f44   0x00000118   Code   RO         3708    i.write_enqueue     fds.o
    0x0002205c   0x0002205c   0x000000f4   Code   RO         3709    i.write_execute     fds.o
    0x00022150   0x00022150   0x00000014   Code   RO         3710    i.write_space_free  fds.o
    0x00022164   0x00022164   0x0000004c   Code   RO         3711    i.write_space_reserve  fds.o
    0x000221b0   0x000221b0   0x00000018   Data   RO           36    .constdata          main.o
    0x000221c8   0x000221c8   0x00000008   Data   RO          447    .constdata          boards.o
    0x000221d0   0x000221d0   0x0000002c   Data   RO          562    .constdata          bsp.o
    0x000221fc   0x000221fc   0x00000004   Data   RO          904    .constdata          ble_conn_params.o
    0x00022200   0x00022200   0x00000004   Data   RO         1258    .constdata          gatts_cache_manager.o
    0x00022204   0x00022204   0x00000010   Data   RO         1259    .constdata          gatts_cache_manager.o
    0x00022214   0x00022214   0x00000004   Data   RO         1260    .constdata          gatts_cache_manager.o
    0x00022218   0x00022218   0x00000008   Data   RO         1357    .constdata          id_manager.o
    0x00022220   0x00022220   0x00000004   Data   RO         1617    .constdata          peer_data_storage.o
    0x00022224   0x00022224   0x00000014   Data   RO         1771    .constdata          peer_database.o
    0x00022238   0x00022238   0x00000044   Data   RO         2361    .constdata          security_dispatcher.o
    0x0002227c   0x0002227c   0x00000004   Data   RO         2472    .constdata          security_manager.o
    0x00022280   0x00022280   0x00000004   Data   RO         2969    .constdata          nrf_drv_gpiote.o
    0x00022284   0x00022284   0x00000014   Data   RO         3713    .constdata          fds.o
    0x00022298   0x00022298   0x00000020   Data   RO         4589    Region$$Table       anon$$obj.o


    Execution Region RW_IRAM1 (Exec base: 0x200033b0, Load base: 0x000222b8, Size: 0x000014c8, Max: 0x00004c50, ABSOLUTE, COMPRESSED[0x00000038])

    Exec Addr    Load Addr    Size         Type   Attr      Idx    E Section Name        Object

    0x200033b0   COMPRESSED   0x0000002c   Data   RW           37    .data               main.o
    0x200033dc   COMPRESSED   0x00000014   Data   RW          563    .data               bsp.o
    0x200033f0   COMPRESSED   0x00000008   Data   RW          659    .data               bsp_btn_ble.o
    0x200033f8   COMPRESSED   0x00000030   Data   RW          825    .data               ble_advertising.o
    0x20003428   COMPRESSED   0x00000014   Data   RW          905    .data               ble_conn_params.o
    0x2000343c   COMPRESSED   0x0000000c   Data   RW         1157    .data               gatt_cache_manager.o
    0x20003448   COMPRESSED   0x0000000c   Data   RW         1261    .data               gatts_cache_manager.o
    0x20003454   COMPRESSED   0x0000000a   Data   RW         1358    .data               id_manager.o
    0x2000345e   COMPRESSED   0x00000002   PAD
    0x20003460   COMPRESSED   0x0000000c   Data   RW         1618    .data               peer_data_storage.o
    0x2000346c   COMPRESSED   0x00000008   Data   RW         1772    .data               peer_database.o
    0x20003474   COMPRESSED   0x00000010   Data   RW         2035    .data               peer_manager.o
    0x20003484   COMPRESSED   0x00000004   Data   RW         2362    .data               security_dispatcher.o
    0x20003488   COMPRESSED   0x00000015   Data   RW         2473    .data               security_manager.o
    0x2000349d   COMPRESSED   0x00000001   PAD
    0x2000349e   COMPRESSED   0x0000004a   Data   RW         2617    .data               ble_dis.o
    0x200034e8   COMPRESSED   0x00000020   Data   RW         3467    .data               app_timer.o
    0x20003508   COMPRESSED   0x0000000c   Data   RW         3594    .data               app_util_platform.o
    0x20003514   COMPRESSED   0x00000018   Data   RW         3714    .data               fds.o
    0x2000352c   COMPRESSED   0x00000002   Data   RW         3978    .data               fstorage.o
    0x2000352e   COMPRESSED   0x00000002   PAD
    0x20003530   COMPRESSED   0x00000014   Data   RW         4393    .data               softdevice_handler.o
    0x20003544   COMPRESSED   0x00000004   Data   RW         4520    .data               system_nrf51.o
    0x20003548   COMPRESSED   0x00000010   Data   RW         3715    fs_data             fds.o
    0x20003558        -       0x00000020   Zero   RW           31    .bss                main.o
    0x20003578        -       0x00000020   Zero   RW           32    .bss                main.o
    0x20003598        -       0x00000020   Zero   RW           33    .bss                main.o
    0x200035b8        -       0x00000020   Zero   RW           34    .bss                main.o
    0x200035d8        -       0x000001f0   Zero   RW           35    .bss                main.o
    0x200037c8        -       0x00000020   Zero   RW          558    .bss                bsp.o
    0x200037e8        -       0x00000020   Zero   RW          559    .bss                bsp.o
    0x20003808        -       0x0000000c   Zero   RW          560    .bss                bsp.o
    0x20003814        -       0x00000020   Zero   RW          561    .bss                bsp.o
    0x20003834        -       0x0000016b   Zero   RW          822    .bss                ble_advertising.o
    0x2000399f   COMPRESSED   0x00000001   PAD
    0x200039a0        -       0x00000020   Zero   RW          823    .bss                ble_advertising.o
    0x200039c0        -       0x00000020   Zero   RW          824    .bss                ble_advertising.o
    0x200039e0        -       0x00000020   Zero   RW          902    .bss                ble_conn_params.o
    0x20003a00        -       0x0000001c   Zero   RW          903    .bss                ble_conn_params.o
    0x20003a1c        -       0x00000034   Zero   RW          979    .bss                ble_conn_state.o
    0x20003a50        -       0x00000070   Zero   RW         1356    .bss                id_manager.o
    0x20003ac0        -       0x00000330   Zero   RW         1770    .bss                peer_database.o
    0x20003df0        -       0x00000040   Zero   RW         1919    .bss                peer_id.o
    0x20003e30        -       0x0000000c   Zero   RW         2033    .bss                peer_manager.o
    0x20003e3c        -       0x00000040   Zero   RW         2360    .bss                security_dispatcher.o
    0x20003e7c        -       0x00000014   Zero   RW         2755    .bss                nrf_drv_clock.o
    0x20003e90        -       0x00000048   Zero   RW         2968    .bss                nrf_drv_gpiote.o
    0x20003ed8        -       0x0000001c   Zero   RW         3177    .bss                nrf_drv_uart.o
    0x20003ef4        -       0x0000011c   Zero   RW         3712    .bss                fds.o
    0x20004010        -       0x00000068   Zero   RW         3977    .bss                fstorage.o
    0x20004078        -       0x00000800   Zero   RW         4508    STACK               arm_startup_nrf51.o


==============================================================================

Image component sizes


      Code (inc. data)   RO Data    RW Data    ZI Data      Debug   Object Name

        24          4          0          0          0       2201   app_error.o
        28         10          0          0          0       7094   app_error_weak.o
      1608        158          0         32          0      43107   app_timer.o
       104         20          0         12          0       6386   app_util_platform.o
        56         18        192          0       2048        708   arm_startup_nrf51.o
      1368          6          0          0          0      30616   ble_advdata.o
      1048         68          0         48        427       9917   ble_advertising.o
       596         20          0          0          0       4847   ble_bas.o
       460         60          4         20         60       5512   ble_conn_params.o
       532         52          0          0         52       9465   ble_conn_state.o
       604         16          0         74          0       5487   ble_dis.o
       786         20          0          0          0       9487   ble_hrs.o
        44          0          0          0          0       2822   ble_srv_common.o
       212         46          8          0          0      10125   boards.o
       682         60         44         20        108      10872   bsp.o
       214          6          0          8          0       3954   bsp_btn_ble.o
      3622        378         20         40        284      44730   fds.o
       980         82          0          2        104      12579   fstorage.o
      1044         80          0         12          0      15652   gatt_cache_manager.o
       536         66         24         12          0       9115   gatts_cache_manager.o
      1174         92          8         10        112      20077   id_manager.o
      2126        260         24         44        624     149125   main.o
         6          0          0          0          0       1950   nrf_ble_gatt.o
       276         38          0          0         20      11872   nrf_drv_clock.o
        96         18          0          0          0       7312   nrf_drv_common.o
      1134         96          4          0         72      27109   nrf_drv_gpiote.o
       454          8          0          0         28      16037   nrf_drv_uart.o
      1206         64          4         12          0      18408   peer_data_storage.o
      1358         72         20          8        816      23187   peer_database.o
       370         60          0          0         64       8747   peer_id.o
      1228        112          0         16         12      13004   peer_manager.o
       248          0          0          0          0       4291   pm_buffer.o
       224          0          0          0          0       5157   pm_mutex.o
       248          6          0          0          0       6084   sdk_mapped_flags.o
      1836        104         68          4         64      20100   security_dispatcher.o
      1086         82          4         21          0      16316   security_manager.o
       106          0          0          0          0       3215   sensorsim.o
       528         70          0         20          0      22076   softdevice_handler.o
       232         36          0          4          0       2343   system_nrf51.o

    ----------------------------------------------------------------------
     28554       2288        456        424       4896     621086   Object Totals
         0          0         32          0          0          0   (incl. Generated)
        70          0          0          5          1          0   (incl. Padding)

    ----------------------------------------------------------------------

      Code (inc. data)   RO Data    RW Data    ZI Data      Debug   Library Member Name

        86          0          0          0          0          0   __dczerorl2.o
         0          0          0          0          0          0   entry.o
         0          0          0          0          0          0   entry10a.o
         0          0          0          0          0          0   entry11a.o
         8          4          0          0          0          0   entry2.o
         4          0          0          0          0          0   entry5.o
         0          0          0          0          0          0   entry7b.o
         0          0          0          0          0          0   entry8b.o
         8          4          0          0          0          0   entry9a.o
        30          0          0          0          0          0   handlers.o
        36          8          0          0          0         68   init.o
        26          0          0          0          0         72   memcmp.o
        64          0          0          0          0         68   memmovea.o
        36          0          0          0          0        100   memseta.o
        14          0          0          0          0         60   strlen.o
        44          0          0          0          0         72   uidiv.o

    ----------------------------------------------------------------------
       358         16          0          0          0        440   Library Totals
         2          0          0          0          0          0   (incl. Padding)

    ----------------------------------------------------------------------

      Code (inc. data)   RO Data    RW Data    ZI Data      Debug   Library Name

       356         16          0          0          0        440   mc_p.l

    ----------------------------------------------------------------------
       358         16          0          0          0        440   Library Totals

    ----------------------------------------------------------------------

==============================================================================


      Code (inc. data)   RO Data    RW Data    ZI Data      Debug   

     28912       2304        456        424       4896     604766   Grand Totals
     28912       2304        456         56       4896     604766   ELF Image Totals (compressed)
     28912       2304        456         56          0          0   ROM Totals

==============================================================================

    Total RO  Size (Code + RO Data)                29368 (  28.68kB)
    Total RW  Size (RW Data + ZI Data)              5320 (   5.20kB)
    Total ROM Size (Code + RO Data + RW Data)      29424 (  28.73kB)

==============================================================================

